(dp1
L514L
(dp2
S'last_update'
p3
S'Thursday, 10. May 2012 10:08PM'
p4
sS'availcode'
p5
NsS'num'
p6
V571
p7
sS'id'
p8
L514L
sS'zipcode'
p9
V32828
p10
ssL1031L
(dp11
g6
S'1530'
p12
sg9
V32839
p13
sS'availbility'
p14
I01
sS'store_name'
p15
VBest Buy - Millenia Mall
p16
sg5
I3
sg3
S'Thursday, 10. May 2012 10:08PM'
p17
sg8
L1031L
ssL1040L
(dp18
g6
S'1539'
p19
sg9
V33954
p20
sg14
I01
sg15
VBest Buy - Port Charlotte - 1539
p21
sg5
I3
sg3
S'Thursday, 10. May 2012 10:08PM'
p22
sg8
L1040L
ssL1050L
(dp23
g3
S'Thursday, 10. May 2012 10:08PM'
p24
sg5
Nsg6
V1660
p25
sg8
L1050L
sg9
V33431
p26
ssL1055L
(dp27
g3
S'Thursday, 10. May 2012 10:08PM'
p28
sg5
Nsg6
V1665
p29
sg8
L1055L
sg9
V33172
p30
ssL1312L
(dp31
g3
S'Thursday, 10. May 2012 10:08PM'
p32
sg5
Nsg6
V2821
p33
sg8
L1312L
sg9
V33901
p34
ssL1201L
(dp35
g3
S'Thursday, 10. May 2012 10:08PM'
p36
sg5
Nsg6
V2709
p37
sg8
L1201L
sg9
V33426
p38
ssL298L
(dp39
g3
S'Thursday, 10. May 2012 10:08PM'
p40
sg5
Nsg6
V350
p41
sg8
L298L
sg9
V32256
p42
ssL1072L
(dp43
g6
S'1763'
p44
sg9
V32159
p45
sg14
I01
sg15
VBest Buy - Lady Lake Home Of The Stampede
p46
sg5
I3
sg3
S'Thursday, 10. May 2012 10:08PM'
p47
sg8
L1072L
ssL1074L
(dp48
g3
S'Thursday, 10. May 2012 10:08PM'
p49
sg5
Nsg6
V1766
p50
sg8
L1074L
sg9
V33635
p51
ssL693L
(dp52
g6
S'885'
p53
sg9
V34668
p54
sg14
I01
sg15
VBest Buy - Port Richey
p55
sg5
I3
sg3
S'Thursday, 10. May 2012 10:08PM'
p56
sg8
L693L
ssL577L
(dp57
g6
S'688'
p58
sg9
V33410
p59
sg14
I01
sg15
VBest Buy - Palm Beach Gardens - Legacy Place Mall
p60
sg5
I3
sg3
S'Thursday, 10. May 2012 10:08PM'
p61
sg8
L577L
ssL1221L
(dp62
g3
S'Thursday, 10. May 2012 10:08PM'
p63
sg5
Nsg6
V2729
p64
sg8
L1221L
sg9
V33761
p65
ssL1093L
(dp66
g6
S'1790'
p67
sg9
V32246
p68
sg14
I01
sg15
VBest Buy - Saint Johns
p69
sg5
I3
sg3
S'Thursday, 10. May 2012 10:08PM'
p70
sg8
L1093L
ssL838L
(dp71
g6
S'1135'
p72
sg9
V33913
p73
sg14
I01
sg15
VBest Buy - Gulf Coast
p74
sg5
I3
sg3
S'Thursday, 10. May 2012 10:08PM'
p75
sg8
L838L
ssL839L
(dp76
g6
S'1136'
p77
sg9
V33071
p78
sg14
I01
sg15
VBest Buy - Coral Springs
p79
sg5
I3
sg3
S'Thursday, 10. May 2012 10:08PM'
p80
sg8
L839L
ssL1356L
(dp81
g3
S'Thursday, 10. May 2012 10:08PM'
p82
sg5
Nsg6
V2904
p83
sg8
L1356L
sg9
V33323
p84
ssL591L
(dp85
g6
S'767'
p86
sg9
V33928
p87
sg14
I01
sg15
VBest Buy - Bonita Springs
p88
sg5
I3
sg3
S'Thursday, 10. May 2012 10:08PM'
p89
sg8
L591L
ssL1360L
(dp90
g3
S'Thursday, 10. May 2012 10:08PM'
p91
sg5
Nsg6
V2908
p92
sg8
L1360L
sg9
V34102
p93
ssL342L
(dp94
g3
S'Thursday, 10. May 2012 10:08PM'
p95
sg5
Nsg6
V395
p96
sg8
L342L
sg9
V32504
p97
ssL858L
(dp98
g3
S'Thursday, 10. May 2012 10:08PM'
p99
sg5
Nsg6
V1156
p100
sg8
L858L
sg9
V34787
p101
ssL611L
(dp102
g6
S'799'
p103
sg9
V32541
p104
sg14
I01
sg15
VBest Buy - Destin FL
p105
sg5
I3
sg3
S'Thursday, 10. May 2012 10:08PM'
p106
sg8
L611L
ssL870L
(dp107
g6
S'1168'
p108
sg9
V33414
p109
sg14
I01
sg15
VBest Buy - Wellington
p110
sg5
I3
sg3
S'Thursday, 10. May 2012 10:08PM'
p111
sg8
L870L
ssL106L
(dp112
g3
S'Thursday, 10. May 2012 10:08PM'
p113
sg5
Nsg6
V157
p114
sg8
L106L
sg9
V32803
p115
ssL619L
(dp116
g6
S'808'
p117
sg9
V33426
p118
sg14
I01
sg15
VBest Buy - Boynton Beach
p119
sg5
I3
sg3
S'Thursday, 10. May 2012 10:08PM'
p120
sg8
L619L
ssL1389L
(dp121
g3
S'Thursday, 10. May 2012 10:08PM'
p122
sg5
Nsg6
V2942
p123
sg8
L1389L
sg9
V33189
p124
ssL1393L
(dp125
g3
S'Thursday, 10. May 2012 10:08PM'
p126
sg5
Nsg6
V2948
p127
sg8
L1393L
sg9
V32605
p128
ssL626L
(dp129
g3
S'Thursday, 10. May 2012 10:08PM'
p130
sg5
Nsg6
V816
p131
sg8
L626L
sg9
V32966
p132
ssL371L
(dp133
g3
S'Thursday, 10. May 2012 10:08PM'
p134
sg5
Nsg6
V424
p135
sg8
L371L
sg9
V32608
p136
ssL376L
(dp137
g3
S'Thursday, 10. May 2012 10:08PM'
p138
sg5
Nsg6
V429
p139
sg8
L376L
sg9
V32225
p140
ssL377L
(dp141
g3
S'Thursday, 10. May 2012 10:08PM'
p142
sg5
Nsg6
V430
p143
sg8
L377L
sg9
V32244
p144
ssL378L
(dp145
g6
S'431'
p146
sg9
V33907
p147
sg14
I01
sg15
VBest Buy - Fort Myers
p148
sg5
I3
sg3
S'Thursday, 10. May 2012 10:08PM'
p149
sg8
L378L
ssL382L
(dp150
g3
S'Thursday, 10. May 2012 10:08PM'
p151
sg5
Nsg6
V435
p152
sg8
L382L
sg9
V32301
p153
ssL899L
(dp154
g3
S'Thursday, 10. May 2012 10:08PM'
p155
sg5
Nsg6
V1258
p156
sg8
L899L
sg9
V33324
p157
ssL877L
(dp158
g6
S'1178'
p159
sg9
V33034
p160
sg14
I01
sg15
VBest Buy - Florida City
p161
sg5
I3
sg3
S'Thursday, 10. May 2012 10:08PM'
p162
sg8
L877L
ssL389L
(dp163
g6
S'443'
p164
sg9
V34761
p165
sg14
I01
sg15
VBest Buy - Ocoee
p166
sg5
I3
sg3
S'Thursday, 10. May 2012 10:08PM'
p167
sg8
L389L
ssL1217L
(dp168
g3
S'Thursday, 10. May 2012 10:08PM'
p169
sg5
Nsg6
V2725
p170
sg8
L1217L
sg9
V33625
p171
ssL905L
(dp172
g6
S'1383'
p173
sg9
V34607
p174
sg14
I01
sg15
VBest Buy - Spring Hill
p175
sg5
I3
sg3
S'Thursday, 10. May 2012 10:08PM'
p176
sg8
L905L
ssL1165L
(dp177
g3
S'Thursday, 10. May 2012 10:08PM'
p178
sg5
Nsg6
V1960
p179
sg8
L1165L
sg9
V33323
p180
ssL1167L
(dp181
g3
S'Thursday, 10. May 2012 10:08PM'
p182
sg5
Nsg6
V1962
p183
sg8
L1167L
sg9
V33026
p184
ssL1171L
(dp185
g3
S'Thursday, 10. May 2012 10:08PM'
p186
sg5
Nsg6
V2377
p187
sg8
L1171L
sg9
V33609
p188
ssL1172L
(dp189
g3
S'Thursday, 10. May 2012 10:08PM'
p190
sg5
Nsg6
V2378
p191
sg8
L1172L
sg9
V33771
p192
ssL1173L
(dp193
g3
S'Thursday, 10. May 2012 10:08PM'
p194
sg5
Nsg6
V2379
p195
sg8
L1173L
sg9
V34231
p196
ssL1174L
(dp197
g3
S'Thursday, 10. May 2012 10:08PM'
p198
sg5
Nsg6
V2380
p199
sg8
L1174L
sg9
V33618
p200
ssL408L
(dp201
g3
S'Thursday, 10. May 2012 10:08PM'
p202
sg5
Nsg6
V462
p203
sg8
L408L
sg9
V33625
p204
ssL665L
(dp205
g6
S'857'
p206
sg9
V32405
p207
sg14
I01
sg15
VBest Buy - Panama City
p208
sg5
I3
sg3
S'Thursday, 10. May 2012 10:08PM'
p209
sg8
L665L
ssL922L
(dp210
g6
S'1405'
p211
sg9
V33544
p212
sg14
I01
sg15
VBest Buy - Wesley Chapel
p213
sg5
I3
sg3
S'Thursday, 10. May 2012 10:08PM'
p214
sg8
L922L
ssL8859L
(dp215
S'num'
p216
V2339
p217
sS'name'
p218
VWasilla
p219
sS'availbility'
p220
VLimited Availability
p221
sS'last_update'
p222
S'Thursday, 10. May 2012 03:09PM'
p223
sS'availcode'
p224
I2
sS'id'
p225
L8859L
ssL670L
(dp226
g6
S'862'
p227
sg9
V34471
p228
sg14
I01
sg15
VBest Buy - Ocala
p229
sg5
I3
sg3
S'Thursday, 10. May 2012 10:08PM'
p230
sg8
L670L
ssL1349L
(dp231
g3
S'Thursday, 10. May 2012 10:08PM'
p232
sg5
Nsg6
V2878
p233
sg8
L1349L
sg9
V34238
p234
ssL928L
(dp235
g6
S'1411'
p236
sg9
V34741
p237
sg14
I01
sg15
VBest Buy - Kissimmee
p238
sg5
I3
sg3
S'Thursday, 10. May 2012 10:08PM'
p239
sg8
L928L
ssL1008L
(dp240
g6
S'1498'
p241
sg9
V33139
p242
sg14
I01
sg15
VBest Buy - Miami Beach
p243
sg5
I3
sg3
S'Thursday, 10. May 2012 10:08PM'
p244
sg8
L1008L
ssL1186L
(dp245
g6
S'2513'
p246
sg9
V33647
p247
sg14
I01
sg15
VBest Buy - New Tampa
p248
sg5
I3
sg3
S'Thursday, 10. May 2012 10:08PM'
p249
sg8
L1186L
ssL881L
(dp250
g6
S'1184'
p251
sg9
V33837
p252
sg14
I01
sg15
VBest Buy - Davenport
p253
sg5
I3
sg3
S'Thursday, 10. May 2012 10:08PM'
p254
sg8
L881L
ssL941L
(dp255
g6
S'1424'
p256
sg9
V33063
p257
sg14
I01
sg15
VBest Buy - Margate
p258
sg5
I3
sg3
S'Thursday, 10. May 2012 10:08PM'
p259
sg8
L941L
ssL1198L
(dp260
g3
S'Thursday, 10. May 2012 10:08PM'
p261
sg5
Nsg6
V2706
p262
sg8
L1198L
sg9
V33388
p263
ssL1200L
(dp264
g3
S'Thursday, 10. May 2012 10:08PM'
p265
sg5
Nsg6
V2708
p266
sg8
L1200L
sg9
V33012
p267
ssL689L
(dp268
g6
S'881'
p269
sg9
V34994
p270
sg14
I01
sg15
VBest Buy - Jensen Beach
p271
sg5
I3
sg3
S'Thursday, 10. May 2012 10:08PM'
p272
sg8
L689L
ssL1202L
(dp273
g3
S'Thursday, 10. May 2012 10:08PM'
p274
sg5
Nsg6
V2710
p275
sg8
L1202L
sg9
V33172
p276
ssL1011L
(dp277
g6
S'1502'
p278
sg9
V33172
p279
sg14
I01
sg15
VBest Buy - Doral
p280
sg5
I3
sg3
S'Thursday, 10. May 2012 10:08PM'
p281
sg8
L1011L
ssL1205L
(dp282
g3
S'Thursday, 10. May 2012 10:08PM'
p283
sg5
Nsg6
V2713
p284
sg8
L1205L
sg9
V33071
p285
ssL1012L
(dp286
g6
S'1503'
p287
sg9
V33156
p288
sg14
I01
sg15
VBest Buy - Pinecrest
p289
sg5
I3
sg3
S'Thursday, 10. May 2012 10:08PM'
p290
sg8
L1012L
ssL8890L
(dp291
g216
V2371
p292
sg218
VAnchorage NE
p293
sg220
VAvailable
p294
sg222
S'Thursday, 10. May 2012 03:09PM'
p295
sg224
I3
sg225
L8890L
ssL8891L
(dp296
g216
V2372
p297
sg218
VAnchorage South
p298
sg220
VNot Available
p299
sg222
S'Thursday, 10. May 2012 03:09PM'
p300
sg224
I0
sg225
L8891L
ssL1213L
(dp301
g3
S'Thursday, 10. May 2012 10:08PM'
p302
sg5
Nsg6
V2721
p303
sg8
L1213L
sg9
V32771
p304
ssL1215L
(dp305
g3
S'Thursday, 10. May 2012 10:08PM'
p306
sg5
Nsg6
V2723
p307
sg8
L1215L
sg9
V32114
p308
ssL1216L
(dp309
g3
S'Thursday, 10. May 2012 10:08PM'
p310
sg5
Nsg6
V2724
p311
sg8
L1216L
sg9
V32809
p312
ssL1261L
(dp313
g3
S'Thursday, 10. May 2012 10:08PM'
p314
sg5
Nsg6
V2769
p315
sg8
L1261L
sg9
V32504
p316
ssL1218L
(dp317
g3
S'Thursday, 10. May 2012 10:08PM'
p318
sg5
Nsg6
V2726
p319
sg8
L1218L
sg9
V33511
p320
ssL453L
(dp321
g3
S'Thursday, 10. May 2012 10:08PM'
p322
sg5
Nsg6
V509
p323
sg8
L453L
sg9
V32714
p324
ssL454L
(dp325
g6
S'510'
p326
sg9
V32809
p327
sg14
I01
sg15
VBest Buy - Florida Mall
p328
sg5
I3
sg3
S'Thursday, 10. May 2012 10:08PM'
p329
sg8
L454L
ssL967L
(dp330
g6
S'1452'
p331
sg9
V34243
p332
sg14
I01
sg15
VBest Buy - University Town Center
p333
sg5
I3
sg3
S'Thursday, 10. May 2012 10:08PM'
p334
sg8
L967L
ssL456L
(dp335
g6
S'512'
p336
sg9
V32904
p337
sg14
I01
sg15
VBest Buy - Melbourne
p338
sg5
I3
sg3
S'Thursday, 10. May 2012 10:08PM'
p339
sg8
L456L
ssL844L
(dp340
g6
S'1141'
p341
sg9
V34205
p342
sg14
I01
sg15
VBest Buy - Bradenton
p343
sg5
I3
sg3
S'Thursday, 10. May 2012 10:08PM'
p344
sg8
L844L
ssL1226L
(dp345
g3
S'Thursday, 10. May 2012 10:08PM'
p346
sg5
Nsg6
V2734
p347
sg8
L1226L
sg9
V32701
p348
ssL459L
(dp349
g3
S'Thursday, 10. May 2012 10:08PM'
p350
sg5
Nsg6
V515
p351
sg8
L459L
sg9
V32114
p352
ssL1016L
(dp353
g3
S'Thursday, 10. May 2012 10:08PM'
p354
sg5
Nsg6
V1508
p355
sg8
L1016L
sg9
V33905
p356
ssL1236L
(dp357
g3
S'Thursday, 10. May 2012 10:08PM'
p358
sg5
Nsg6
V2744
p359
sg8
L1236L
sg9
V32256
p360
ssL1237L
(dp361
g3
S'Thursday, 10. May 2012 10:08PM'
p362
sg5
Nsg6
V2745
p363
sg8
L1237L
sg9
V32073
p364
ssL505L
(dp365
g6
S'562'
p366
sg9
V34231
p367
sg14
I01
sg15
VBest Buy - Sarasota
p368
sg5
I3
sg3
S'Thursday, 10. May 2012 10:08PM'
p369
sg8
L505L
ssL990L
(dp370
g6
S'1475'
p371
sg9
V32218
p372
sg14
I01
sg15
VBest Buy - North Jacksonville (River City Marketplace)
p373
sg5
I3
sg3
S'Thursday, 10. May 2012 10:08PM'
p374
sg8
L990L
ssL487L
(dp375
g6
S'543'
p376
sg9
V33306
p377
sg14
I01
sg15
VBest Buy - Fort Lauderdale
p378
sg5
I3
sg3
S'Thursday, 10. May 2012 10:08PM'
p379
sg8
L487L
ssL1276L
(dp380
g3
S'Thursday, 10. May 2012 10:08PM'
p381
sg5
Nsg6
V2784
p382
sg8
L1276L
sg9
V33710
p383
ssL551L
(dp384
g6
S'608'
p385
sg9
V32771
p386
sg14
I01
sg15
VBest Buy - Sanford
p387
sg5
I3
sg3
S'Thursday, 10. May 2012 10:08PM'
p388
sg8
L551L
ssL493L
(dp389
g6
S'550'
p390
sg9
V33401
p391
sg14
I01
sg15
VBest Buy - West Palm Beach
p392
sg5
I3
sg3
S'Thursday, 10. May 2012 10:08PM'
p393
sg8
L493L
ssL494L
(dp394
g6
S'551'
p395
sg9
V33323
p396
sg14
I01
sg15
VBest Buy - Sawgrass
p397
sg5
I3
sg3
S'Thursday, 10. May 2012 10:08PM'
p398
sg8
L494L
ssL495L
(dp399
g6
S'552'
p400
sg9
V33186
p401
sg14
I01
sg15
VBest Buy - W. Kendall
p402
sg5
I3
sg3
S'Thursday, 10. May 2012 10:08PM'
p403
sg8
L495L
ssL496L
(dp404
g3
S'Thursday, 10. May 2012 10:08PM'
p405
sg5
Nsg6
V553
p406
sg8
L496L
sg9
V33155
p407
ssL497L
(dp408
g6
S'554'
p409
sg9
V33498
p410
sg14
I01
sg15
VBest Buy - Boca Raton
p411
sg5
I3
sg3
S'Thursday, 10. May 2012 10:08PM'
p412
sg8
L497L
ssL498L
(dp413
g6
S'555'
p414
sg9
V33012
p415
sg14
I01
sg15
VBest Buy - Hialeah
p416
sg5
I3
sg3
S'Thursday, 10. May 2012 10:08PM'
p417
sg8
L498L
ssL499L
(dp418
g6
S'556'
p419
sg9
V33157
p420
sg14
I01
sg15
VBest Buy - Cutler Bay
p421
sg5
I3
sg3
S'Thursday, 10. May 2012 10:08PM'
p422
sg8
L499L
ssL500L
(dp423
g6
S'557'
p424
sg9
V33143
p425
sg14
I01
sg15
VBest Buy - Dadeland
p426
sg5
I3
sg3
S'Thursday, 10. May 2012 10:08PM'
p427
sg8
L500L
ssL501L
(dp428
g3
S'Thursday, 10. May 2012 10:08PM'
p429
sg5
Nsg6
V558
p430
sg8
L501L
sg9
V33180
p431
ssL502L
(dp432
g3
S'Thursday, 10. May 2012 10:08PM'
p433
sg5
Nsg6
V559
p434
sg8
L502L
sg9
V33026
p435
ssL503L
(dp436
g6
S'560'
p437
sg9
V33510
p438
sg14
I01
sg15
VBest Buy - Brandon
p439
sg5
I3
sg3
S'Thursday, 10. May 2012 10:08PM'
p440
sg8
L503L
ssL504L
(dp441
g3
S'Thursday, 10. May 2012 10:08PM'
p442
sg5
Nsg6
V561
p443
sg8
L504L
sg9
V33607
p444
ssL468L
(dp445
g6
S'524'
p446
sg9
V34109
p447
sg14
I01
sg15
VBest Buy - Naples
p448
sg5
I3
sg3
S'Thursday, 10. May 2012 10:08PM'
p449
sg8
L468L
ssL506L
(dp450
g6
S'563'
p451
sg9
V33809
p452
sg14
I01
sg15
VBest Buy - Lakeland
p453
sg5
I3
sg3
S'Thursday, 10. May 2012 10:08PM'
p454
sg8
L506L
ssL507L
(dp455
g6
S'564'
p456
sg9
V33765
p457
sg14
I01
sg15
VBest Buy - Clearwater
p458
sg5
I3
sg3
S'Thursday, 10. May 2012 10:08PM'
p459
sg8
L507L
ssL508L
(dp460
g3
S'Thursday, 10. May 2012 10:08PM'
p461
sg5
Nsg6
V565
p462
sg8
L508L
sg9
V33710
p463
ss.