(dp1
L2049L
(dp2
S'zipcode'
p3
V33604
p4
sS'availcode'
p5
NsS'num'
p6
V5221
p7
sS'id'
p8
L2049L
sS'last_update'
p9
S'Thursday, 10. May 2012 10:12PM'
p10
ssL2L
(dp11
g3
V33407
p12
sg5
Nsg6
V4446
p13
sg8
L2L
sg9
S'Thursday, 10. May 2012 10:12PM'
p14
ssL2053L
(dp15
S'last_update'
p16
S'Thursday, 10. May 2012 10:18PM'
p17
sS'availcode'
p18
NsS'num'
p19
V740
p20
sS'id'
p21
L2053L
sS'zipcode'
p22
V36360
p23
ssL2050L
(dp24
g3
V33614
p25
sg5
Nsg6
V5220
p26
sg8
L2050L
sg9
S'Thursday, 10. May 2012 10:12PM'
p27
ssL1039L
(dp28
g3
V34203
p29
sg5
Nsg6
V528
p30
sg8
L1039L
sg9
S'Thursday, 10. May 2012 10:12PM'
p31
ssL345L
(dp32
g19
V4318
p33
sS'store_address'
p34
V145 Kelley Blvd
p35
sg22
V36054
p36
sS'availbility'
p37
VOut of stock
p38
sS'store_name'
p39
VMillbrook
p40
sg18
I0
sg16
S'Thursday, 10. May 2012 10:18PM'
p41
sg21
L345L
ssL2077L
(dp42
g19
V1057
p43
sg34
V1302 Gilmer Ave
p44
sg22
V36078
p45
sg37
VOut of stock
p46
sg39
VTallassee
p47
sg18
I0
sg16
S'Thursday, 10. May 2012 10:18PM'
p48
sg21
L2077L
ssL1054L
(dp49
g3
V34105
p50
sg5
Nsg6
V4354
p51
sg8
L1054L
sg9
S'Thursday, 10. May 2012 10:12PM'
p52
ssL2080L
(dp53
g3
V33823
p54
sg5
Nsg6
V718
p55
sg8
L2080L
sg9
S'Thursday, 10. May 2012 10:12PM'
p56
ssL1200L
(dp57
g5
I0
sS'store_address'
p58
V12555 W Sunrise Blvd
p59
sg3
V33323
p60
sS'availbility'
p61
VOut of stock
p62
sS'store_name'
p63
VSunrise
p64
sg6
V2151
p65
sg9
S'Thursday, 10. May 2012 10:12PM'
p66
sg8
L1200L
ssL3419L
(dp67
g16
S'Thursday, 10. May 2012 10:18PM'
p68
sg18
Nsg19
V5098
p69
sg21
L3419L
sg22
V36609
p70
ssL36L
(dp71
g3
V33155
p72
sg5
Nsg6
V5854
p73
sg8
L36L
sg9
S'Thursday, 10. May 2012 10:12PM'
p74
ssL3109L
(dp75
g3
V32536
p76
sg5
Nsg6
V944
p77
sg8
L3109L
sg9
S'Thursday, 10. May 2012 10:12PM'
p78
ssL3110L
(dp79
g3
V33755
p80
sg5
Nsg6
V4667
p81
sg8
L3110L
sg9
S'Thursday, 10. May 2012 10:12PM'
p82
ssL3111L
(dp83
g5
I0
sg58
V10500 W Colonial Dr
p84
sg3
V34761
p85
sg61
VOut of stock
p86
sg63
VOcoee
p87
sg6
V942
p88
sg9
S'Thursday, 10. May 2012 10:12PM'
p89
sg8
L3111L
ssL1064L
(dp90
g16
S'Thursday, 10. May 2012 10:18PM'
p91
sg18
Nsg19
V432
p92
sg21
L1064L
sg22
V35160
p93
ssL1065L
(dp94
g16
S'Thursday, 10. May 2012 10:18PM'
p95
sg18
Nsg19
V433
p96
sg21
L1065L
sg22
V35810
p97
ssL3114L
(dp98
g3
V33511
p99
sg5
Nsg6
V941
p100
sg8
L3114L
sg9
S'Thursday, 10. May 2012 10:12PM'
p101
ssL3116L
(dp102
g3
V32348
p103
sg5
Nsg6
V5172
p104
sg8
L3116L
sg9
S'Thursday, 10. May 2012 10:12PM'
p105
ssL2909L
(dp106
g3
V33525
p107
sg5
Nsg6
V713
p108
sg8
L2909L
sg9
S'Thursday, 10. May 2012 10:12PM'
p109
ssL3122L
(dp110
g16
S'Thursday, 10. May 2012 10:18PM'
p111
sg18
Nsg19
V5174
p112
sg21
L3122L
sg22
V36575
p113
ssL8243L
(dp114
S'num'
p115
V1468
p116
sS'name'
p117
VDothan
p118
sS'availbility'
p119
VAvailable
p120
sS'last_update'
p121
S'Thursday, 10. May 2012 03:13PM'
p122
sS'availcode'
p123
I3
sS'id'
p124
L8243L
ssL2101L
(dp125
g5
I0
sg58
V1521 W Granada Blvd
p126
sg3
V32174
p127
sg61
VOut of stock
p128
sg63
VOrmond Beach
p129
sg6
V613
p130
sg9
S'Thursday, 10. May 2012 10:12PM'
p131
sg8
L2101L
ssL56L
(dp132
g16
S'Thursday, 10. May 2012 10:18PM'
p133
sg18
Nsg19
V4657
p134
sg21
L56L
sg22
V36609
p135
ssL180L
(dp136
g3
V33991
p137
sg5
Nsg6
V5453
p138
sg8
L180L
sg9
S'Thursday, 10. May 2012 10:12PM'
p139
ssL3130L
(dp140
g3
V34114
p141
sg5
Nsg6
V3417
p142
sg8
L3130L
sg9
S'Thursday, 10. May 2012 10:12PM'
p143
ssL1205L
(dp144
g3
V32966
p145
sg5
Nsg6
V931
p146
sg8
L1205L
sg9
S'Thursday, 10. May 2012 10:12PM'
p147
ssL182L
(dp148
g5
I0
sg58
V7450 Cypress Gardens Blvd
p149
sg3
V33884
p150
sg61
VOut of stock
p151
sg63
VWinter Haven
p152
sg6
V3347
p153
sg9
S'Thursday, 10. May 2012 10:12PM'
p154
sg8
L182L
ssL1099L
(dp155
g3
V33062
p156
sg5
Nsg6
V4617
p157
sg8
L1099L
sg9
S'Thursday, 10. May 2012 10:12PM'
p158
ssL8273L
(dp159
g115
V1499
p160
sg117
VOpelika
p161
sg119
VLimited Availability
p162
sg121
S'Thursday, 10. May 2012 03:13PM'
p163
sg123
I2
sg124
L8273L
ssL3770L
(dp164
g3
V33948
p165
sg5
Nsg6
V721
p166
sg8
L3770L
sg9
S'Thursday, 10. May 2012 10:12PM'
p167
ssL1121L
(dp168
g16
S'Thursday, 10. May 2012 10:18PM'
p169
sg18
Nsg19
V1052
p170
sg21
L1121L
sg22
V35555
p171
ssL8891L
(dp172
S'num'
p173
V2372
p174
sS'name'
p175
VAnchorage South
p176
sS'availbility'
p177
VNot Available
p178
sS'last_update'
p179
S'Thursday, 10. May 2012 03:10PM'
p180
sS'availcode'
p181
I0
sS'id'
p182
L8891L
ssL1124L
(dp183
g16
S'Thursday, 10. May 2012 10:18PM'
p184
sg18
Nsg19
V4504
p185
sg21
L1124L
sg22
V35209
p186
ssL3181L
(dp187
g5
I0
sg58
V17030 Us Highway 441
p188
sg3
V32757
p189
sg61
VOut of stock
p190
sg63
VMount Dora
p191
sg6
V705
p192
sg9
S'Thursday, 10. May 2012 10:12PM'
p193
sg8
L3181L
ssL1136L
(dp194
g5
I0
sg58
V23106 Us Highway 19 N
p195
sg3
V33765
p196
sg61
VOut of stock
p197
sg63
VClearwater
p198
sg6
V2081
p199
sg9
S'Thursday, 10. May 2012 10:12PM'
p200
sg8
L1136L
ssL113L
(dp201
g3
V34714
p202
sg5
Nsg6
V5299
p203
sg8
L113L
sg9
S'Thursday, 10. May 2012 10:12PM'
p204
ssL2163L
(dp205
g3
V33966
p206
sg5
Nsg6
V5034
p207
sg8
L2163L
sg9
S'Thursday, 10. May 2012 10:12PM'
p208
ssL702L
(dp209
g16
S'Thursday, 10. May 2012 10:18PM'
p210
sg18
Nsg19
V4333
p211
sg21
L702L
sg22
V36532
p212
ssL2166L
(dp213
g3
V32958
p214
sg5
Nsg6
V1068
p215
sg8
L2166L
sg9
S'Thursday, 10. May 2012 10:12PM'
p216
ssL1147L
(dp217
g5
I2
sg58
V3767 Gulf Breeze Pkwy
p218
sg3
V32563
p219
sg61
VLimited stock
p220
sg63
VGulf Breeze
p221
sg6
V2533
p222
sg9
S'Thursday, 10. May 2012 10:12PM'
p223
sg8
L1147L
ssL2174L
(dp224
g16
S'Thursday, 10. May 2012 10:18PM'
p225
sg18
Nsg19
V5262
p226
sg21
L2174L
sg22
V35124
p227
ssL1152L
(dp228
g16
S'Thursday, 10. May 2012 10:18PM'
p229
sg18
Nsg19
V2534
p230
sg21
L1152L
sg22
V36301
p231
ssL3264L
(dp232
g5
I0
sg58
V13227 City Square Dr
p233
sg3
V32218
p234
sg61
VOut of stock
p235
sg63
VJacksonville
p236
sg6
V3702
p237
sg9
S'Thursday, 10. May 2012 10:12PM'
p238
sg8
L3264L
ssL1155L
(dp239
g16
S'Thursday, 10. May 2012 10:18PM'
p240
sg18
Nsg19
V2713
p241
sg21
L1155L
sg22
V35235
p242
ssL2187L
(dp243
g5
I0
sg58
V3535 Apalachee Pkwy
p244
sg3
V32311
p245
sg61
VOut of stock
p246
sg63
VTallahassee
p247
sg6
V1077
p248
sg9
S'Thursday, 10. May 2012 10:12PM'
p249
sg8
L2187L
ssL1165L
(dp250
g3
V32907
p251
sg5
Nsg6
V5455
p252
sg8
L1165L
sg9
S'Thursday, 10. May 2012 10:12PM'
p253
ssL143L
(dp254
g19
V1620
p255
sg34
V2578 Douglas Ave
p256
sg22
V36426
p257
sg37
VOut of stock
p258
sg39
VBrewton
p259
sg18
I0
sg16
S'Thursday, 10. May 2012 10:18PM'
p260
sg21
L143L
ssL3219L
(dp261
g5
I0
sg58
V1590 Dunlawton Ave
p262
sg3
V32127
p263
sg61
VOut of stock
p264
sg63
VPort Orange
p265
sg6
V582
p266
sg9
S'Thursday, 10. May 2012 10:12PM'
p267
sg8
L3219L
ssL3221L
(dp268
g5
I0
sg58
V1050 E Van Fleet Dr
p269
sg3
V33830
p270
sg61
VOut of stock
p271
sg63
VBartow
p272
sg6
V580
p273
sg9
S'Thursday, 10. May 2012 10:12PM'
p274
sg8
L3221L
ssL8344L
(dp275
g115
V1772
p276
sg117
VBirmingham 280 Corridor
p277
sg119
VAvailable
p278
sg121
S'Thursday, 10. May 2012 03:13PM'
p279
sg123
I3
sg124
L8344L
ssL8345L
(dp280
g115
V1773
p281
sg117
VTrussville
p282
sg119
VLimited Availability
p283
sg121
S'Thursday, 10. May 2012 03:13PM'
p284
sg123
I2
sg124
L8345L
ssL165L
(dp285
g3
V32177
p286
sg5
Nsg6
V551
p287
sg8
L165L
sg9
S'Thursday, 10. May 2012 10:12PM'
p288
ssL8358L
(dp289
g115
V1787
p290
sg117
VTuscaloosa
p291
sg119
VAvailable
p292
sg121
S'Thursday, 10. May 2012 03:13PM'
p293
sg123
I3
sg124
L8358L
ssL3441L
(dp294
g3
V33067
p295
sg5
Nsg6
V4498
p296
sg8
L3441L
sg9
S'Thursday, 10. May 2012 10:12PM'
p297
ssL170L
(dp298
g5
I0
sg58
V9885 Collier Blvd
p299
sg3
V34114
p300
sg61
VOut of stock
p301
sg63
VNaples
p302
sg6
V5055
p303
sg9
S'Thursday, 10. May 2012 10:12PM'
p304
sg8
L170L
ssL3243L
(dp305
g5
I2
sg58
V17650 Nw 2Nd Ave
p306
sg3
V33169
p307
sg61
VLimited stock
p308
sg63
VMiami Gardens
p309
sg6
V3397
p310
sg9
S'Thursday, 10. May 2012 10:12PM'
p311
sg8
L3243L
ssL1198L
(dp312
g19
V938
p313
sg34
V6495 Atlanta Hwy
p314
sg22
V36117
p315
sg37
VOut of stock
p316
sg39
VMontgomery
p317
sg18
I0
sg16
S'Thursday, 10. May 2012 10:18PM'
p318
sg21
L1198L
ssL175L
(dp319
g5
I0
sg58
V101 N Congress Ave
p320
sg3
V33403
p321
sg61
VOut of stock
p322
sg63
VLake Park
p323
sg6
V3348
p324
sg9
S'Thursday, 10. May 2012 10:12PM'
p325
sg8
L175L
ssL176L
(dp326
g3
V33983
p327
sg5
Nsg6
V3349
p328
sg8
L176L
sg9
S'Thursday, 10. May 2012 10:12PM'
p329
ssL178L
(dp330
g3
V33914
p331
sg5
Nsg6
V5451
p332
sg8
L178L
sg9
S'Thursday, 10. May 2012 10:12PM'
p333
ssL3252L
(dp334
g3
V33351
p335
sg5
Nsg6
V1349
p336
sg8
L3252L
sg9
S'Thursday, 10. May 2012 10:12PM'
p337
ssL3253L
(dp338
g3
V32162
p339
sg5
Nsg6
V4262
p340
sg8
L3253L
sg9
S'Thursday, 10. May 2012 10:12PM'
p341
ssL2230L
(dp342
g3
V34997
p343
sg5
Nsg6
V1087
p344
sg8
L2230L
sg9
S'Thursday, 10. May 2012 10:12PM'
p345
ssL2234L
(dp346
g5
I0
sg58
V151 Sw 184Th Ave
p347
sg3
V33029
p348
sg61
VOut of stock
p349
sg63
VPembroke Pines
p350
sg6
V2591
p351
sg9
S'Thursday, 10. May 2012 10:12PM'
p352
sg8
L2234L
ssL2237L
(dp353
g3
V33625
p354
sg5
Nsg6
V5036
p355
sg8
L2237L
sg9
S'Thursday, 10. May 2012 10:12PM'
p356
ssL2238L
(dp357
g3
V32097
p358
sg5
Nsg6
V5037
p359
sg8
L2238L
sg9
S'Thursday, 10. May 2012 10:12PM'
p360
ssL2240L
(dp361
g3
V33860
p362
sg5
Nsg6
V5035
p363
sg8
L2240L
sg9
S'Thursday, 10. May 2012 10:12PM'
p364
ssL3104L
(dp365
g3
V33781
p366
sg5
Nsg6
V4669
p367
sg8
L3104L
sg9
S'Thursday, 10. May 2012 10:12PM'
p368
ssL1222L
(dp369
g5
I0
sg58
V11225 Tamiami Trl N
p370
sg3
V34110
p371
sg61
VOut of stock
p372
sg63
VNaples
p373
sg6
V1957
p374
sg9
S'Thursday, 10. May 2012 10:12PM'
p375
sg8
L1222L
ssL199L
(dp376
g5
I0
sg58
V8808 Beach Blvd
p377
sg3
V32216
p378
sg61
VOut of stock
p379
sg63
VJacksonville
p380
sg6
V1173
p381
sg9
S'Thursday, 10. May 2012 10:12PM'
p382
sg8
L199L
ssL200L
(dp383
g5
I2
sg58
V13490 Beach Blvd
p384
sg3
V32224
p385
sg61
VLimited stock
p386
sg63
VJacksonville
p387
sg6
V1172
p388
sg9
S'Thursday, 10. May 2012 10:12PM'
p389
sg8
L200L
ssL201L
(dp390
g3
V34243
p391
sg5
Nsg6
V1171
p392
sg8
L201L
sg9
S'Thursday, 10. May 2012 10:12PM'
p393
ssL8395L
(dp394
g115
V1825
p395
sg117
VMontgomery
p396
sg119
VOut Of Stock
p397
sg121
S'Thursday, 10. May 2012 03:13PM'
p398
sg123
I0
sg124
L8395L
ssL1232L
(dp399
g5
I0
sg58
V508 10Th St E
p400
sg3
V34221
p401
sg61
VOut of stock
p402
sg63
VPalmetto
p403
sg6
V3370
p404
sg9
S'Thursday, 10. May 2012 10:12PM'
p405
sg8
L1232L
ssL3281L
(dp406
g3
V32055
p407
sg5
Nsg6
V767
p408
sg8
L3281L
sg9
S'Thursday, 10. May 2012 10:12PM'
p409
ssL2258L
(dp410
g3
V32034
p411
sg5
Nsg6
V977
p412
sg8
L2258L
sg9
S'Thursday, 10. May 2012 10:12PM'
p413
ssL2261L
(dp414
g3
V32904
p415
sg5
Nsg6
V974
p416
sg8
L2261L
sg9
S'Thursday, 10. May 2012 10:12PM'
p417
ssL2262L
(dp418
g5
I0
sg58
V5100 Okeechobee Rd
p419
sg3
V34947
p420
sg61
VOut of stock
p421
sg63
VFort Pierce
p422
sg6
V973
p423
sg9
S'Thursday, 10. May 2012 10:12PM'
p424
sg8
L2262L
ssL3287L
(dp425
g3
V32765
p426
sg5
Nsg6
V5894
p427
sg8
L3287L
sg9
S'Thursday, 10. May 2012 10:12PM'
p428
ssL3291L
(dp429
g3
V33825
p430
sg5
Nsg6
V3887
p431
sg8
L3291L
sg9
S'Thursday, 10. May 2012 10:12PM'
p432
ssL1403L
(dp433
g3
V33971
p434
sg5
Nsg6
V2237
p435
sg8
L1403L
sg9
S'Thursday, 10. May 2012 10:12PM'
p436
ssL1062L
(dp437
g16
S'Thursday, 10. May 2012 10:18PM'
p438
sg18
Nsg19
V434
p439
sg21
L1062L
sg22
V35803
p440
ssL3302L
(dp441
g5
I0
sg58
V9300 Nw 77Th Ave
p442
sg3
V33016
p443
sg61
VOut of stock
p444
sg63
VHialeah
p445
sg6
V2814
p446
sg9
S'Thursday, 10. May 2012 10:12PM'
p447
sg8
L3302L
ssL1256L
(dp448
g3
V33634
p449
sg5
Nsg6
V1482
p450
sg8
L1256L
sg9
S'Thursday, 10. May 2012 10:12PM'
p451
ssL1257L
(dp452
g19
V1481
p453
sg34
V209 Lakeshore Pkwy
p454
sg22
V35209
p455
sg37
VOut of stock
p456
sg39
VHomewood
p457
sg18
I0
sg16
S'Thursday, 10. May 2012 10:18PM'
p458
sg21
L1257L
ssL39L
(dp459
g19
V298
p460
sg34
V1972 Hwy 431
p461
sg22
V35957
p462
sg37
VOut of stock
p463
sg39
VBoaz
p464
sg18
I0
sg16
S'Thursday, 10. May 2012 10:18PM'
p465
sg21
L39L
ssL2770L
(dp466
g3
V33549
p467
sg5
Nsg6
V988
p468
sg8
L2770L
sg9
S'Thursday, 10. May 2012 10:12PM'
p469
ssL1262L
(dp470
g5
I0
sg58
V4250 Phillips Hwy
p471
sg3
V32207
p472
sg61
VOut of stock
p473
sg63
VJacksonville
p474
sg6
V3309
p475
sg9
S'Thursday, 10. May 2012 10:12PM'
p476
sg8
L1262L
ssL239L
(dp477
g19
V662
p478
sg34
V2800 Spring Avn. S.W
p479
sg22
V35603
p480
sg37
VOut of stock
p481
sg39
VDecatur
p482
sg18
I0
sg16
S'Thursday, 10. May 2012 10:18PM'
p483
sg21
L239L
ssL240L
(dp484
g5
I0
sg58
V545 Pine Island Rd
p485
sg3
V33903
p486
sg61
VOut of stock
p487
sg63
VNorth Fort Myers
p488
sg6
V623
p489
sg9
S'Thursday, 10. May 2012 10:12PM'
p490
sg8
L240L
ssL3112L
(dp491
g5
I0
sg58
V1239 State Road 436 Ste 101
p492
sg3
V32707
p493
sg61
VOut of stock
p494
sg63
VCasselberry
p495
sg6
V943
p496
sg9
S'Thursday, 10. May 2012 10:12PM'
p497
sg8
L3112L
ssL3315L
(dp498
g16
S'Thursday, 10. May 2012 10:18PM'
p499
sg18
Nsg19
V329
p500
sg21
L3315L
sg22
V36206
p501
ssL3319L
(dp502
g5
I0
sg58
V3001 North State Road #7
p503
sg3
V33313
p504
sg61
VOut of stock
p505
sg63
VLauderdale Lakes
p506
sg6
V3625
p507
sg9
S'Thursday, 10. May 2012 10:12PM'
p508
sg8
L3319L
ssL248L
(dp509
g3
V32312
p510
sg5
Nsg6
V1223
p511
sg8
L248L
sg9
S'Thursday, 10. May 2012 10:12PM'
p512
ssL1273L
(dp513
g19
V1711
p514
sg34
V1600 Montclair Rd
p515
sg22
V35210
p516
sg37
VOut of stock
p517
sg39
VIrondale
p518
sg18
I0
sg16
S'Thursday, 10. May 2012 10:18PM'
p519
sg21
L1273L
ssL3455L
(dp520
g3
V33919
p521
sg5
Nsg6
V5321
p522
sg8
L3455L
sg9
S'Thursday, 10. May 2012 10:12PM'
p523
ssL2301L
(dp524
g3
V32765
p525
sg5
Nsg6
V5106
p526
sg8
L2301L
sg9
S'Thursday, 10. May 2012 10:12PM'
p527
ssL257L
(dp528
g3
V33071
p529
sg5
Nsg6
V4380
p530
sg8
L257L
sg9
S'Thursday, 10. May 2012 10:12PM'
p531
ssL259L
(dp532
g3
V33578
p533
sg5
Nsg6
V5622
p534
sg8
L259L
sg9
S'Thursday, 10. May 2012 10:12PM'
p535
ssL2309L
(dp536
g3
V32720
p537
sg5
Nsg6
V860
p538
sg8
L2309L
sg9
S'Thursday, 10. May 2012 10:12PM'
p539
ssL2310L
(dp540
g16
S'Thursday, 10. May 2012 10:18PM'
p541
sg18
Nsg19
V863
p542
sg21
L2310L
sg22
V36274
p543
ssL265L
(dp544
g3
V32448
p545
sg5
Nsg6
V1375
p546
sg8
L265L
sg9
S'Thursday, 10. May 2012 10:12PM'
p547
ssL266L
(dp548
g3
V32714
p549
sg5
Nsg6
V1374
p550
sg8
L266L
sg9
S'Thursday, 10. May 2012 10:12PM'
p551
ssL2315L
(dp552
g19
V866
p553
sg34
V5245 Rangeline Service Rd S
p554
sg22
V36619
p555
sg37
VOut of stock
p556
sg39
VMobile
p557
sg18
I0
sg16
S'Thursday, 10. May 2012 10:18PM'
p558
sg21
L2315L
ssL272L
(dp559
g16
S'Thursday, 10. May 2012 10:18PM'
p560
sg18
Nsg19
V409
p561
sg21
L272L
sg22
V35565
p562
ssL1297L
(dp563
g5
I0
sg58
V1226 Freeport Road
p564
sg3
V32433
p565
sg61
VOut of stock
p566
sg63
VDe Funiak Springs
p567
sg6
V1134
p568
sg9
S'Thursday, 10. May 2012 10:12PM'
p569
sg8
L1297L
ssL3453L
(dp570
g3
V33063
p571
sg5
Nsg6
V5325
p572
sg8
L3453L
sg9
S'Thursday, 10. May 2012 10:12PM'
p573
ssL3353L
(dp574
g5
I0
sg58
V2201 N Young Blvd
p575
sg3
V32626
p576
sg61
VOut of stock
p577
sg63
VChiefland
p578
sg6
V1297
p579
sg9
S'Thursday, 10. May 2012 10:12PM'
p580
sg8
L3353L
ssL3354L
(dp581
g3
V33440
p582
sg5
Nsg6
V2484
p583
sg8
L3354L
sg9
S'Thursday, 10. May 2012 10:12PM'
p584
ssL214L
(dp585
g19
V1284
p586
sg34
V3700 Hwy 280/431 N.
p587
sg22
V36867
p588
sg37
VOut of stock
p589
sg39
VPhenix City
p590
sg18
I0
sg16
S'Thursday, 10. May 2012 10:18PM'
p591
sg21
L214L
ssL1314L
(dp592
g3
V34210
p593
sg5
Nsg6
V1004
p594
sg8
L1314L
sg9
S'Thursday, 10. May 2012 10:12PM'
p595
ssL219L
(dp596
g3
V32091
p597
sg5
Nsg6
V1283
p598
sg8
L219L
sg9
S'Thursday, 10. May 2012 10:12PM'
p599
ssL293L
(dp600
g19
V375
p601
sg34
V2900 S. Mem Pkwy(Dra
p602
sg22
V35801
p603
sg37
VOut of stock
p604
sg39
VHuntsville
p605
sg18
I0
sg16
S'Thursday, 10. May 2012 10:18PM'
p606
sg21
L293L
ssL3367L
(dp607
g3
V32825
p608
sg5
Nsg6
V5179
p609
sg8
L3367L
sg9
S'Thursday, 10. May 2012 10:12PM'
p610
ssL2344L
(dp611
g3
V33711
p612
sg5
Nsg6
V5218
p613
sg8
L2344L
sg9
S'Thursday, 10. May 2012 10:12PM'
p614
ssL1321L
(dp615
g5
I0
sg58
V899 Blanding Blvd
p616
sg3
V32065
p617
sg61
VOut of stock
p618
sg63
VOrange Park
p619
sg6
V1225
p620
sg9
S'Thursday, 10. May 2012 10:12PM'
p621
sg8
L1321L
ssL298L
(dp622
g16
S'Thursday, 10. May 2012 10:18PM'
p623
sg18
Nsg19
V403
p624
sg21
L298L
sg22
V35653
p625
ssL3371L
(dp626
g5
I0
sg58
V8745 State Road 54
p627
sg3
V34655
p628
sg61
VOut of stock
p629
sg63
VNew Port Richey
p630
sg6
V994
p631
sg9
S'Thursday, 10. May 2012 10:12PM'
p632
sg8
L3371L
ssL1324L
(dp633
g5
I0
sg58
V8970 Pensacola Blvd
p634
sg3
V32534
p635
sg61
VOut of stock
p636
sg63
VPensacola
p637
sg6
V1222
p638
sg9
S'Thursday, 10. May 2012 10:12PM'
p639
sg8
L1324L
ssL3373L
(dp640
g19
V991
p641
sg34
V101 E I65 Service Rd S
p642
sg22
V36606
p643
sg37
VOut of stock
p644
sg39
VMobile
p645
sg18
I0
sg16
S'Thursday, 10. May 2012 10:18PM'
p646
sg21
L3373L
ssL1326L
(dp647
g3
V32811
p648
sg5
Nsg6
V1220
p649
sg8
L1326L
sg9
S'Thursday, 10. May 2012 10:12PM'
p650
ssL2352L
(dp651
g3
V32952
p652
sg5
Nsg6
V771
p653
sg8
L2352L
sg9
S'Thursday, 10. May 2012 10:12PM'
p654
ssL1329L
(dp655
g16
S'Thursday, 10. May 2012 10:18PM'
p656
sg18
Nsg19
V1229
p657
sg21
L1329L
sg22
V35244
p658
ssL306L
(dp659
g16
S'Thursday, 10. May 2012 10:18PM'
p660
sg18
Nsg19
V394
p661
sg21
L306L
sg22
V35650
p662
ssL2356L
(dp663
g5
I0
sg58
V3501 S Florida Ave
p664
sg3
V33803
p665
sg61
VOut of stock
p666
sg63
VLakeland
p667
sg6
V779
p668
sg9
S'Thursday, 10. May 2012 10:12PM'
p669
sg8
L2356L
ssL2357L
(dp670
g3
V33950
p671
sg5
Nsg6
V778
p672
sg8
L2357L
sg9
S'Thursday, 10. May 2012 10:12PM'
p673
ssL314L
(dp674
g16
S'Thursday, 10. May 2012 10:18PM'
p675
sg18
Nsg19
V2306
p676
sg21
L314L
sg22
V35476
p677
ssL315L
(dp678
g3
V34741
p679
sg5
Nsg6
V5846
p680
sg8
L315L
sg9
S'Thursday, 10. May 2012 10:12PM'
p681
ssL316L
(dp682
g3
V32578
p683
sg5
Nsg6
V5845
p684
sg8
L316L
sg9
S'Thursday, 10. May 2012 10:12PM'
p685
ssL1350L
(dp686
g5
I0
sg58
V1800 Ne 12Th Ave
p687
sg3
V32641
p688
sg61
VOut of stock
p689
sg63
VGainesville
p690
sg6
V3877
p691
sg9
S'Thursday, 10. May 2012 10:12PM'
p692
sg8
L1350L
ssL2379L
(dp693
g3
V32935
p694
sg5
Nsg6
V5365
p695
sg8
L2379L
sg9
S'Thursday, 10. May 2012 10:12PM'
p696
ssL2383L
(dp697
g3
V33196
p698
sg5
Nsg6
V1680
p699
sg8
L2383L
sg9
S'Thursday, 10. May 2012 10:12PM'
p700
ssL3410L
(dp701
g3
V34677
p702
sg5
Nsg6
V2796
p703
sg8
L3410L
sg9
S'Thursday, 10. May 2012 10:12PM'
p704
ssL3415L
(dp705
g3
V34448
p706
sg5
Nsg6
V1029
p707
sg8
L3415L
sg9
S'Thursday, 10. May 2012 10:12PM'
p708
ssL3416L
(dp709
g3
V34746
p710
sg5
Nsg6
V5420
p711
sg8
L3416L
sg9
S'Thursday, 10. May 2012 10:12PM'
p712
ssL1369L
(dp713
g16
S'Thursday, 10. May 2012 10:18PM'
p714
sg18
Nsg19
V3271
p715
sg21
L1369L
sg22
V35040
p716
ssL347L
(dp717
g3
V34233
p718
sg5
Nsg6
V2459
p719
sg8
L347L
sg9
S'Thursday, 10. May 2012 10:12PM'
p720
ssL1373L
(dp721
g3
V34952
p722
sg5
Nsg6
V929
p723
sg8
L1373L
sg9
S'Thursday, 10. May 2012 10:12PM'
p724
ssL2277L
(dp725
g16
S'Thursday, 10. May 2012 10:18PM'
p726
sg18
Nsg19
V2111
p727
sg21
L2277L
sg22
V35242
p728
ssL2400L
(dp729
g5
I0
sg58
V3525 Us Highway 27 N
p730
sg3
V33870
p731
sg61
VOut of stock
p732
sg63
VSebring
p733
sg6
V666
p734
sg9
S'Thursday, 10. May 2012 10:12PM'
p735
sg8
L2400L
ssL2910L
(dp736
g19
V712
p737
sg34
V24833 John T Reid Prkwy
p738
sg22
V35768
p739
sg37
VOut of stock
p740
sg39
VScottsboro
p741
sg18
I0
sg16
S'Thursday, 10. May 2012 10:18PM'
p742
sg21
L2910L
ssL2405L
(dp743
g19
V661
p744
sg34
V1011 Us Highway 72 E
p745
sg22
V35611
p746
sg37
VOut of stock
p747
sg39
VAthens
p748
sg18
I0
sg16
S'Thursday, 10. May 2012 10:18PM'
p749
sg21
L2405L
ssL2406L
(dp750
g19
V660
p751
sg34
V517 Avalon Ave
p752
sg22
V35661
p753
sg37
VOut of stock
p754
sg39
VMuscle Shoals
p755
sg18
I0
sg16
S'Thursday, 10. May 2012 10:18PM'
p756
sg21
L2406L
ssL360L
(dp757
g5
I0
sg58
V2700 Clearlake Rd
p758
sg3
V32922
p759
sg61
VOut of stock
p760
sg63
VCocoa
p761
sg6
V174
p762
sg9
S'Thursday, 10. May 2012 10:12PM'
p763
sg8
L360L
ssL2280L
(dp764
g3
V32428
p765
sg5
Nsg6
V2114
p766
sg8
L2280L
sg9
S'Thursday, 10. May 2012 10:12PM'
p767
ssL2420L
(dp768
g3
V33073
p769
sg5
Nsg6
V1916
p770
sg8
L2420L
sg9
S'Thursday, 10. May 2012 10:12PM'
p771
ssL2424L
(dp772
g19
V1462
p773
sg34
V501 Willow Ln
p774
sg22
V36037
p775
sg37
VOut of stock
p776
sg39
VGreenville
p777
sg18
I0
sg16
S'Thursday, 10. May 2012 10:18PM'
p778
sg21
L2424L
ssL378L
(dp779
g5
I2
sg58
V14941 N Dale Mabry Hwy
p780
sg3
V33618
p781
sg61
VLimited stock
p782
sg63
VTampa
p783
sg6
V1501
p784
sg9
S'Thursday, 10. May 2012 10:12PM'
p785
sg8
L378L
ssL3451L
(dp786
g5
I0
sg58
V9570 Sw Highway 200
p787
sg3
V34481
p788
sg61
VOut of stock
p789
sg63
VOcala
p790
sg6
V5326
p791
sg9
S'Thursday, 10. May 2012 10:12PM'
p792
sg8
L3451L
ssL1405L
(dp793
g5
I0
sg58
V12800 Pines Blvd
p794
sg3
V33027
p795
sg61
VOut of stock
p796
sg63
VPembroke Pines
p797
sg6
V5932
p798
sg9
S'Thursday, 10. May 2012 10:12PM'
p799
sg8
L1405L
ssL1206L
(dp800
g19
V930
p801
sg34
V3801 Eastern Blvd
p802
sg22
V36116
p803
sg37
VOut of stock
p804
sg39
VMontgomery
p805
sg18
I0
sg16
S'Thursday, 10. May 2012 10:18PM'
p806
sg21
L1206L
ssL385L
(dp807
g3
V34601
p808
sg5
Nsg6
V3526
p809
sg8
L385L
sg9
S'Thursday, 10. May 2012 10:12PM'
p810
ssL386L
(dp811
g3
V34986
p812
sg5
Nsg6
V3527
p813
sg8
L386L
sg9
S'Thursday, 10. May 2012 10:12PM'
p814
ssL235L
(dp815
g19
V681
p816
sg34
V11697 Us Highway 431
p817
sg22
V35976
p818
sg37
VOut of stock
p819
sg39
VGuntersville
p820
sg18
I0
sg16
S'Thursday, 10. May 2012 10:18PM'
p821
sg21
L235L
ssL2441L
(dp822
g3
V33467
p823
sg5
Nsg6
V5759
p824
sg8
L2441L
sg9
S'Thursday, 10. May 2012 10:12PM'
p825
ssL2442L
(dp826
g3
V33467
p827
sg5
Nsg6
V5758
p828
sg8
L2442L
sg9
S'Thursday, 10. May 2012 10:12PM'
p829
ssL1261L
(dp830
g5
I0
sg58
V1580 Branan Field Rd
p831
sg3
V32068
p832
sg61
VOut of stock
p833
sg63
VMiddleburg
p834
sg6
V3308
p835
sg9
S'Thursday, 10. May 2012 10:12PM'
p836
sg8
L1261L
ssL3472L
(dp837
g5
I0
sg58
V2355 Us Highway 1 S
p838
sg3
V32086
p839
sg61
VOut of stock
p840
sg63
VSt Augustine
p841
sg6
V579
p842
sg9
S'Thursday, 10. May 2012 10:12PM'
p843
sg8
L3472L
ssL3474L
(dp844
g16
S'Thursday, 10. May 2012 10:18PM'
p845
sg18
Nsg19
V604
p846
sg21
L3474L
sg22
V36303
p847
ssL404L
(dp848
g5
I0
sg58
V1450 Johns Lake Rd
p849
sg3
V34711
p850
sg61
VOut of stock
p851
sg63
VClermont
p852
sg6
V2695
p853
sg9
S'Thursday, 10. May 2012 10:12PM'
p854
sg8
L404L
ssL2286L
(dp855
g5
I0
sg58
V6868 Us Highway 129
p856
sg3
V32060
p857
sg61
VOut of stock
p858
sg63
VLive Oak
p859
sg6
V2626
p860
sg9
S'Thursday, 10. May 2012 10:12PM'
p861
sg8
L2286L
ssL409L
(dp862
g19
V2690
p863
sg34
V8650 Madison Blvd
p864
sg22
V35758
p865
sg37
VOut of stock
p866
sg39
VMadison
p867
sg18
I0
sg16
S'Thursday, 10. May 2012 10:18PM'
p868
sg21
L409L
ssL1434L
(dp869
g16
S'Thursday, 10. May 2012 10:18PM'
p870
sg18
Nsg19
V4497
p871
sg21
L1434L
sg22
V35023
p872
ssL2287L
(dp873
g5
I0
sg58
V2701 E Fletcher Ave
p874
sg3
V33612
p875
sg61
VOut of stock
p876
sg63
VTampa
p877
sg6
V2627
p878
sg9
S'Thursday, 10. May 2012 10:12PM'
p879
sg8
L2287L
ssL2461L
(dp880
g19
V316
p881
sg34
V973 Gilbert Ferry Rd Se
p882
sg22
V35954
p883
sg37
VOut of stock
p884
sg39
VAttalla
p885
sg18
I0
sg16
S'Thursday, 10. May 2012 10:18PM'
p886
sg21
L2461L
ssL2462L
(dp887
g16
S'Thursday, 10. May 2012 10:18PM'
p888
sg18
Nsg19
V315
p889
sg21
L2462L
sg22
V35121
p890
ssL2466L
(dp891
g3
V32810
p892
sg5
Nsg6
V4211
p893
sg8
L2466L
sg9
S'Thursday, 10. May 2012 10:12PM'
p894
ssL428L
(dp895
g3
V33607
p896
sg5
Nsg6
V1960
p897
sg8
L428L
sg9
S'Thursday, 10. May 2012 10:12PM'
p898
ssL1919L
(dp899
g3
V33511
p900
sg5
Nsg6
V5826
p901
sg8
L1919L
sg9
S'Thursday, 10. May 2012 10:12PM'
p902
ssL3506L
(dp903
g19
V730
p904
sg34
V41301 Us Highway 280
p905
sg22
V35150
p906
sg37
VOut of stock
p907
sg39
VSylacauga
p908
sg18
I0
sg16
S'Thursday, 10. May 2012 10:18PM'
p909
sg21
L3506L
ssL3507L
(dp910
g16
S'Thursday, 10. May 2012 10:18PM'
p911
sg18
Nsg19
V733
p912
sg21
L3507L
sg22
V36854
p913
ssL2974L
(dp914
g3
V32304
p915
sg5
Nsg6
V1408
p916
sg8
L2974L
sg9
S'Thursday, 10. May 2012 10:12PM'
p917
ssL3510L
(dp918
g16
S'Thursday, 10. May 2012 10:18PM'
p919
sg18
Nsg19
V734
p920
sg21
L3510L
sg22
V36330
p921
ssL1464L
(dp922
g19
V4407
p923
sg34
V10710 Chantilly Pkwy
p924
sg22
V36117
p925
sg37
VOut of stock
p926
sg39
VMontgomery
p927
sg18
I0
sg16
S'Thursday, 10. May 2012 10:18PM'
p928
sg21
L1464L
ssL2493L
(dp929
g3
V32828
p930
sg5
Nsg6
V3617
p931
sg8
L2493L
sg9
S'Thursday, 10. May 2012 10:12PM'
p932
ssL7623L
(dp933
g123
Nsg124
L7623L
sg121
S'Thursday, 10. May 2012 03:13PM'
p934
ssL1482L
(dp935
g3
V33584
p936
sg5
Nsg6
V925
p937
sg8
L1482L
sg9
S'Thursday, 10. May 2012 10:12PM'
p938
ssL1486L
(dp939
g3
V34109
p940
sg5
Nsg6
V5391
p941
sg8
L1486L
sg9
S'Thursday, 10. May 2012 10:12PM'
p942
ssL3540L
(dp943
g3
V33064
p944
sg5
Nsg6
V1517
p945
sg8
L3540L
sg9
S'Thursday, 10. May 2012 10:12PM'
p946
ssL3542L
(dp947
g5
I0
sg58
V1800 S University Dr
p948
sg3
V33025
p949
sg61
VOut of stock
p950
sg63
VMiramar
p951
sg6
V1511
p952
sg9
S'Thursday, 10. May 2012 10:12PM'
p953
sg8
L3542L
ssL3544L
(dp954
g5
I0
sg58
V35404 Us Highway 19 N
p955
sg3
V34684
p956
sg61
VOut of stock
p957
sg63
VPalm Harbor
p958
sg6
V1513
p959
sg9
S'Thursday, 10. May 2012 10:12PM'
p960
sg8
L3544L
ssL3548L
(dp961
g3
V33461
p962
sg5
Nsg6
V5882
p963
sg8
L3548L
sg9
S'Thursday, 10. May 2012 10:12PM'
p964
ssL933L
(dp965
g3
V32822
p966
sg5
Nsg6
V3782
p967
sg8
L933L
sg9
S'Thursday, 10. May 2012 10:12PM'
p968
ssL480L
(dp969
g5
I0
sg58
V4150 Tamiami Trl S
p970
sg3
V34293
p971
sg61
VOut of stock
p972
sg63
VVenice
p973
sg6
V769
p974
sg9
S'Thursday, 10. May 2012 10:12PM'
p975
sg8
L480L
ssL1506L
(dp976
g3
V34208
p977
sg5
Nsg6
V3474
p978
sg8
L1506L
sg9
S'Thursday, 10. May 2012 10:12PM'
p979
ssL2299L
(dp980
g16
S'Thursday, 10. May 2012 10:18PM'
p981
sg18
Nsg19
V5100
p982
sg21
L2299L
sg22
V35215
p983
ssL485L
(dp984
g19
V691
p985
sg34
V2001 Glenn Blvd Sw
p986
sg22
V35968
p987
sg37
VOut of stock
p988
sg39
VFort Payne
p989
sg18
I0
sg16
S'Thursday, 10. May 2012 10:18PM'
p990
sg21
L485L
ssL487L
(dp991
g5
I0
sg58
V2600 Sw 19Th Avenue Rd
p992
sg3
V34471
p993
sg61
VOut of stock
p994
sg63
VOcala
p995
sg6
V697
p996
sg9
S'Thursday, 10. May 2012 10:12PM'
p997
sg8
L487L
ssL489L
(dp998
g3
V33411
p999
sg5
Nsg6
V1541
p1000
sg8
L489L
sg9
S'Thursday, 10. May 2012 10:12PM'
p1001
ssL2540L
(dp1002
g5
I2
sg58
V10251 Shops Ln
p1003
sg3
V32258
p1004
sg61
VLimited stock
p1005
sg63
VJacksonville
p1006
sg6
V4444
p1007
sg9
S'Thursday, 10. May 2012 10:12PM'
p1008
sg8
L2540L
ssL3565L
(dp1009
g16
S'Thursday, 10. May 2012 10:18PM'
p1010
sg18
Nsg19
V355
p1011
sg21
L3565L
sg22
V36801
p1012
ssL8688L
(dp1013
g115
V2153
p1014
sg117
VOxford
p1015
sg119
VAvailable
p1016
sg121
S'Thursday, 10. May 2012 03:13PM'
p1017
sg123
I3
sg124
L8688L
ssL8689L
(dp1018
g115
V2154
p1019
sg117
VGulf Shores
p1020
sg119
VAvailable
p1021
sg121
S'Thursday, 10. May 2012 03:13PM'
p1022
sg123
I3
sg124
L8689L
ssL3571L
(dp1023
g3
V32444
p1024
sg5
Nsg6
V1032
p1025
sg8
L3571L
sg9
S'Thursday, 10. May 2012 10:12PM'
p1026
ssL500L
(dp1027
g3
V33566
p1028
sg5
Nsg6
V547
p1029
sg8
L500L
sg9
S'Thursday, 10. May 2012 10:12PM'
p1030
ssL1210L
(dp1031
g19
V934
p1032
sg34
V27520 Us Highway 98
p1033
sg22
V36526
p1034
sg37
VOut of stock
p1035
sg39
VDaphne
p1036
sg18
I0
sg16
S'Thursday, 10. May 2012 10:18PM'
p1037
sg21
L1210L
ssL2552L
(dp1038
g3
V34606
p1039
sg5
Nsg6
V967
p1040
sg8
L2552L
sg9
S'Thursday, 10. May 2012 10:12PM'
p1041
ssL1529L
(dp1042
g3
V32738
p1043
sg5
Nsg6
V3310
p1044
sg8
L1529L
sg9
S'Thursday, 10. May 2012 10:12PM'
p1045
ssL2556L
(dp1046
g3
V33611
p1047
sg5
Nsg6
V4681
p1048
sg8
L2556L
sg9
S'Thursday, 10. May 2012 10:12PM'
p1049
ssL511L
(dp1050
g19
V764
p1051
sg34
V750 Academy Dr
p1052
sg22
V35022
p1053
sg37
VOut of stock
p1054
sg39
VBessemer
p1055
sg18
I0
sg16
S'Thursday, 10. May 2012 10:18PM'
p1056
sg21
L511L
ssL3329L
(dp1057
g16
S'Thursday, 10. May 2012 10:18PM'
p1058
sg18
Nsg19
V5197
p1059
sg21
L3329L
sg22
V35763
p1060
ssL3593L
(dp1061
g19
V287
p1062
sg34
V1801 Highway 78 E
p1063
sg22
V35501
p1064
sg37
VOut of stock
p1065
sg39
VJasper
p1066
sg18
I0
sg16
S'Thursday, 10. May 2012 10:18PM'
p1067
sg21
L3593L
ssL527L
(dp1068
g3
V33067
p1069
sg5
Nsg6
V1387
p1070
sg8
L527L
sg9
S'Thursday, 10. May 2012 10:12PM'
p1071
ssL1552L
(dp1072
g3
V32561
p1073
sg5
Nsg6
V5623
p1074
sg8
L1552L
sg9
S'Thursday, 10. May 2012 10:12PM'
p1075
ssL2577L
(dp1076
g16
S'Thursday, 10. May 2012 10:18PM'
p1077
sg18
Nsg19
V5113
p1078
sg21
L2577L
sg22
V35125
p1079
ssL1554L
(dp1080
g5
I2
sg58
V19501 Nw 27Th Ave
p1081
sg3
V33056
p1082
sg61
VLimited stock
p1083
sg63
VMiami Gardens
p1084
sg6
V3311
p1085
sg9
S'Thursday, 10. May 2012 10:12PM'
p1086
sg8
L1554L
ssL2587L
(dp1087
g3
V32566
p1088
sg5
Nsg6
V3439
p1089
sg8
L2587L
sg9
S'Thursday, 10. May 2012 10:12PM'
p1090
ssL1566L
(dp1091
g5
I0
sg58
V16205 S Military Trl
p1092
sg3
V33484
p1093
sg61
VOut of stock
p1094
sg63
VDelray Beach
p1095
sg6
V1589
p1096
sg9
S'Thursday, 10. May 2012 10:12PM'
p1097
sg8
L1566L
ssL2599L
(dp1098
g3
V33647
p1099
sg5
Nsg6
V2740
p1100
sg8
L2599L
sg9
S'Thursday, 10. May 2012 10:12PM'
p1101
ssL554L
(dp1102
g16
S'Thursday, 10. May 2012 10:18PM'
p1103
sg18
Nsg19
V362
p1104
sg21
L554L
sg22
V35594
p1105
ssL2605L
(dp1106
g3
V33322
p1107
sg5
Nsg6
V4595
p1108
sg8
L2605L
sg9
S'Thursday, 10. May 2012 10:12PM'
p1109
ssL3019L
(dp1110
g5
I0
sg58
V3993 Tyrone Blvd N
p1111
sg3
V33709
p1112
sg61
VOut of stock
p1113
sg63
VSt Petersburg
p1114
sg6
V1536
p1115
sg9
S'Thursday, 10. May 2012 10:12PM'
p1116
sg8
L3019L
ssL2607L
(dp1117
g16
S'Thursday, 10. May 2012 10:18PM'
p1118
sg18
Nsg19
V2748
p1119
sg21
L2607L
sg22
V36542
p1120
ssL2611L
(dp1121
g5
I0
sg58
V11250 E Colonial Dr
p1122
sg3
V32817
p1123
sg61
VOut of stock
p1124
sg63
VOrlando
p1125
sg6
V890
p1126
sg9
S'Thursday, 10. May 2012 10:12PM'
p1127
sg8
L2611L
ssL1588L
(dp1128
g16
S'Thursday, 10. May 2012 10:18PM'
p1129
sg18
Nsg19
V1212
p1130
sg21
L1588L
sg22
V36571
p1131
ssL1589L
(dp1132
g3
V34613
p1133
sg5
Nsg6
V1213
p1134
sg8
L1589L
sg9
S'Thursday, 10. May 2012 10:12PM'
p1135
ssL3338L
(dp1136
g5
I0
sg58
V5851 Nw 177Th St
p1137
sg3
V33015
p1138
sg61
VOut of stock
p1139
sg63
VHialeah
p1140
sg6
V1590
p1141
sg9
S'Thursday, 10. May 2012 10:12PM'
p1142
sg8
L3338L
ssL3647L
(dp1143
g5
I0
sg58
V14821 Ben C Pratt/6 Mile Cypre
p1144
sg3
V33912
p1145
sg61
VOut of stock
p1146
sg63
VFort Myers
p1147
sg6
V987
p1148
sg9
S'Thursday, 10. May 2012 10:12PM'
p1149
sg8
L3647L
ssL580L
(dp1150
g3
V32459
p1151
sg5
Nsg6
V5872
p1152
sg8
L580L
sg9
S'Thursday, 10. May 2012 10:12PM'
p1153
ssL1605L
(dp1154
g16
S'Thursday, 10. May 2012 10:18PM'
p1155
sg18
Nsg19
V5653
p1156
sg21
L1605L
sg22
V36561
p1157
ssL582L
(dp1158
g3
V34698
p1159
sg5
Nsg6
V5876
p1160
sg8
L582L
sg9
S'Thursday, 10. May 2012 10:12PM'
p1161
ssL583L
(dp1162
g3
V32837
p1163
sg5
Nsg6
V5875
p1164
sg8
L583L
sg9
S'Thursday, 10. May 2012 10:12PM'
p1165
ssL2639L
(dp1166
g3
V33162
p1167
sg5
Nsg6
V3235
p1168
sg8
L2639L
sg9
S'Thursday, 10. May 2012 10:12PM'
p1169
ssL3668L
(dp1170
g5
I0
sg58
V3200 Old Boynton Rd
p1171
sg3
V33436
p1172
sg61
VOut of stock
p1173
sg63
VBoynton Beach
p1174
sg6
V2789
p1175
sg9
S'Thursday, 10. May 2012 10:12PM'
p1176
sg8
L3668L
ssL1620L
(dp1177
g5
I0
sg58
V2461 E Gulf To Lake Hwy
p1178
sg3
V34453
p1179
sg61
VOut of stock
p1180
sg63
VInverness
p1181
sg6
V1104
p1182
sg9
S'Thursday, 10. May 2012 10:12PM'
p1183
sg8
L1620L
ssL1624L
(dp1184
g16
S'Thursday, 10. May 2012 10:18PM'
p1185
sg18
Nsg19
V1100
p1186
sg21
L1624L
sg22
V35570
p1187
ssL2651L
(dp1188
g3
V33076
p1189
sg5
Nsg6
V2963
p1190
sg8
L2651L
sg9
S'Thursday, 10. May 2012 10:12PM'
p1191
ssL2652L
(dp1192
g5
I0
sg58
V2300 W Atlantic Blvd
p1193
sg3
V33069
p1194
sg61
VOut of stock
p1195
sg63
VPompano Beach
p1196
sg6
V2962
p1197
sg9
S'Thursday, 10. May 2012 10:12PM'
p1198
sg8
L2652L
ssL2653L
(dp1199
g19
V762
p1200
sg34
V9248 Parkway E
p1201
sg22
V35206
p1202
sg37
VOut of stock
p1203
sg39
VBirmingham
p1204
sg18
I0
sg16
S'Thursday, 10. May 2012 10:18PM'
p1205
sg21
L2653L
ssL2654L
(dp1206
g19
V763
p1207
sg34
V7201 Aaron Aronov Dr
p1208
sg22
V35064
p1209
sg37
VOut of stock
p1210
sg39
VFairfield
p1211
sg18
I0
sg16
S'Thursday, 10. May 2012 10:18PM'
p1212
sg21
L2654L
ssL2657L
(dp1213
g16
S'Thursday, 10. May 2012 10:18PM'
p1214
sg18
Nsg19
V766
p1215
sg21
L2657L
sg22
V35630
p1216
ssL8803L
(dp1217
g115
V2274
p1218
sg117
VPrattville
p1219
sg119
VAvailable
p1220
sg121
S'Thursday, 10. May 2012 03:13PM'
p1221
sg123
I3
sg124
L8803L
ssL8805L
(dp1222
g115
V2276
p1223
sg117
VAlabaster
p1224
sg119
VAvailable
p1225
sg121
S'Thursday, 10. May 2012 03:13PM'
p1226
sg123
I3
sg124
L8805L
ssL2668L
(dp1227
g3
V32168
p1228
sg5
Nsg6
V1079
p1229
sg8
L2668L
sg9
S'Thursday, 10. May 2012 10:12PM'
p1230
ssL1645L
(dp1231
g3
V34202
p1232
sg5
Nsg6
V5727
p1233
sg8
L1645L
sg9
S'Thursday, 10. May 2012 10:12PM'
p1234
ssL957L
(dp1235
g3
V32407
p1236
sg5
Nsg6
V818
p1237
sg8
L957L
sg9
S'Thursday, 10. May 2012 10:12PM'
p1238
ssL3704L
(dp1239
g3
V32003
p1240
sg5
Nsg6
V2920
p1241
sg8
L3704L
sg9
S'Thursday, 10. May 2012 10:12PM'
p1242
ssL3706L
(dp1243
g3
V32351
p1244
sg5
Nsg6
V488
p1245
sg8
L3706L
sg9
S'Thursday, 10. May 2012 10:12PM'
p1246
ssL1659L
(dp1247
g3
V33774
p1248
sg5
Nsg6
V5831
p1249
sg8
L1659L
sg9
S'Thursday, 10. May 2012 10:12PM'
p1250
ssL2691L
(dp1251
g5
I0
sg58
V6767 103Rd St
p1252
sg3
V32210
p1253
sg61
VOut of stock
p1254
sg63
VJacksonville
p1255
sg6
V1090
p1256
sg9
S'Thursday, 10. May 2012 10:12PM'
p1257
sg8
L2691L
ssL2692L
(dp1258
g19
V1091
p1259
sg34
V1991 M. L. King Jr.
p1260
sg22
V36420
p1261
sg37
VLimited stock
p1262
sg39
VAndalusia
p1263
sg18
I2
sg16
S'Thursday, 10. May 2012 10:18PM'
p1264
sg21
L2692L
ssL961L
(dp1265
g5
I0
sg58
V2725 Se Highway 70
p1266
sg3
V34266
p1267
sg61
VOut of stock
p1268
sg63
VArcadia
p1269
sg6
V811
p1270
sg9
S'Thursday, 10. May 2012 10:12PM'
p1271
sg8
L961L
ssL648L
(dp1272
g3
V32317
p1273
sg5
Nsg6
V4520
p1274
sg8
L648L
sg9
S'Thursday, 10. May 2012 10:12PM'
p1275
ssL2699L
(dp1276
g3
V32819
p1277
sg5
Nsg6
V4332
p1278
sg8
L2699L
sg9
S'Thursday, 10. May 2012 10:12PM'
p1279
ssL3727L
(dp1280
g16
S'Thursday, 10. May 2012 10:18PM'
p1281
sg18
Nsg19
V1638
p1282
sg21
L3727L
sg22
V36027
p1283
ssL3734L
(dp1284
g5
I0
sg58
V7631 Gall Blvd
p1285
sg3
V33541
p1286
sg61
VOut of stock
p1287
sg63
VZephyrhills
p1288
sg6
V706
p1289
sg9
S'Thursday, 10. May 2012 10:12PM'
p1290
sg8
L3734L
ssL964L
(dp1291
g5
I0
sg58
V2101 S Parrott Ave
p1292
sg3
V34974
p1293
sg61
VOut of stock
p1294
sg63
VOkeechobee
p1295
sg6
V814
p1296
sg9
S'Thursday, 10. May 2012 10:12PM'
p1297
sg8
L964L
ssL8859L
(dp1298
g173
V2339
p1299
sg175
VWasilla
p1300
sg177
VLimited Availability
p1301
sg179
S'Thursday, 10. May 2012 03:10PM'
p1302
sg181
I2
sg182
L8859L
ssL1694L
(dp1303
g5
I0
sg58
V2951 S Blue Angel Pkwy
p1304
sg3
V32506
p1305
sg61
VOut of stock
p1306
sg63
VPensacola
p1307
sg6
V3484
p1308
sg9
S'Thursday, 10. May 2012 10:12PM'
p1309
sg8
L1694L
ssL1697L
(dp1310
g3
V33411
p1311
sg5
Nsg6
V4560
p1312
sg8
L1697L
sg9
S'Thursday, 10. May 2012 10:12PM'
p1313
ssL3746L
(dp1314
g3
V32763
p1315
sg5
Nsg6
V563
p1316
sg8
L3746L
sg9
S'Thursday, 10. May 2012 10:12PM'
p1317
ssL679L
(dp1318
g5
I0
sg58
V11900 Atlantic Blvd
p1319
sg3
V32225
p1320
sg61
VOut of stock
p1321
sg63
VJacksonville
p1322
sg6
V5054
p1323
sg9
S'Thursday, 10. May 2012 10:12PM'
p1324
sg8
L679L
ssL680L
(dp1325
g5
I0
sg58
V8500 N Wickham Rd
p1326
sg3
V32940
p1327
sg61
VOut of stock
p1328
sg63
VMelbourne
p1329
sg6
V3538
p1330
sg9
S'Thursday, 10. May 2012 10:12PM'
p1331
sg8
L680L
ssL8874L
(dp1332
g115
V2355
p1333
sg117
VFultondale
p1334
sg119
VAvailable
p1335
sg121
S'Thursday, 10. May 2012 03:13PM'
p1336
sg123
I3
sg124
L8874L
ssL967L
(dp1337
g3
V34746
p1338
sg5
Nsg6
V817
p1339
sg8
L967L
sg9
S'Thursday, 10. May 2012 10:12PM'
p1340
ssL3759L
(dp1341
g3
V32164
p1342
sg5
Nsg6
V1182
p1343
sg8
L3759L
sg9
S'Thursday, 10. May 2012 10:12PM'
p1344
ssL2736L
(dp1345
g3
V33606
p1346
sg5
Nsg6
V5760
p1347
sg8
L2736L
sg9
S'Thursday, 10. May 2012 10:12PM'
p1348
ssL3763L
(dp1349
g16
S'Thursday, 10. May 2012 10:18PM'
p1350
sg18
Nsg19
V726
p1351
sg21
L3763L
sg22
V35010
p1352
ssL3766L
(dp1353
g3
V33844
p1354
sg5
Nsg6
V725
p1355
sg8
L3766L
sg9
S'Thursday, 10. May 2012 10:12PM'
p1356
ssL3768L
(dp1357
g16
S'Thursday, 10. May 2012 10:18PM'
p1358
sg18
Nsg19
V723
p1359
sg21
L3768L
sg22
V36081
p1360
ssL8890L
(dp1361
g173
V2371
p1362
sg175
VAnchorage NE
p1363
sg177
VAvailable
p1364
sg179
S'Thursday, 10. May 2012 03:10PM'
p1365
sg181
I3
sg182
L8890L
ssL699L
(dp1366
g16
S'Thursday, 10. May 2012 10:18PM'
p1367
sg18
Nsg19
V670
p1368
sg21
L699L
sg22
V35055
p1369
ssL8894L
(dp1370
g115
V2375
p1371
sg117
VBessemer
p1372
sg119
VAvailable
p1373
sg121
S'Thursday, 10. May 2012 03:13PM'
p1374
sg123
I3
sg124
L8894L
ssL703L
(dp1375
g16
S'Thursday, 10. May 2012 10:18PM'
p1376
sg18
Nsg19
V4330
p1377
sg21
L703L
sg22
V35043
p1378
ssL2755L
(dp1379
g19
V300
p1380
sg34
V1625 Pelham Rd S
p1381
sg22
V36265
p1382
sg37
VOut of stock
p1383
sg39
VJacksonville
p1384
sg18
I0
sg16
S'Thursday, 10. May 2012 10:18PM'
p1385
sg21
L2755L
ssL2756L
(dp1386
g16
S'Thursday, 10. May 2012 10:18PM'
p1387
sg18
Nsg19
V301
p1388
sg21
L2756L
sg22
V35903
p1389
ssL1735L
(dp1390
g5
I0
sg58
V7300 W Mcnab Rd
p1391
sg3
V33068
p1392
sg61
VOut of stock
p1393
sg63
VNorth Lauderdale
p1394
sg6
V1851
p1395
sg9
S'Thursday, 10. May 2012 10:12PM'
p1396
sg8
L1735L
ssL2761L
(dp1397
g16
S'Thursday, 10. May 2012 10:18PM'
p1398
sg18
Nsg19
V306
p1399
sg21
L2761L
sg22
V35016
p1400
ssL715L
(dp1401
g3
V32506
p1402
sg5
Nsg6
V1605
p1403
sg8
L715L
sg9
S'Thursday, 10. May 2012 10:12PM'
p1404
ssL719L
(dp1405
g16
S'Thursday, 10. May 2012 10:18PM'
p1406
sg18
Nsg19
V809
p1407
sg21
L719L
sg22
V36203
p1408
ssL1745L
(dp1409
g3
V32547
p1410
sg5
Nsg6
V919
p1411
sg8
L1745L
sg9
S'Thursday, 10. May 2012 10:12PM'
p1412
ssL722L
(dp1413
g5
I0
sg58
V8101 S John Young Pkwy
p1414
sg3
V32819
p1415
sg61
VOut of stock
p1416
sg63
VOrlando
p1417
sg6
V908
p1418
sg9
S'Thursday, 10. May 2012 10:12PM'
p1419
sg8
L722L
ssL3795L
(dp1420
g3
V32327
p1421
sg5
Nsg6
V3307
p1422
sg8
L3795L
sg9
S'Thursday, 10. May 2012 10:12PM'
p1423
ssL724L
(dp1424
g3
V34748
p1425
sg5
Nsg6
V800
p1426
sg8
L724L
sg9
S'Thursday, 10. May 2012 10:12PM'
p1427
ssL2773L
(dp1428
g3
V33012
p1429
sg5
Nsg6
V5945
p1430
sg8
L2773L
sg9
S'Thursday, 10. May 2012 10:12PM'
p1431
ssL735L
(dp1432
g5
I0
sg58
V17961 S Us Highway 441
p1433
sg3
V34491
p1434
sg61
VOut of stock
p1435
sg63
VSummerfield
p1436
sg6
V2843
p1437
sg9
S'Thursday, 10. May 2012 10:12PM'
p1438
sg8
L735L
ssL2795L
(dp1439
g3
V32901
p1440
sg5
Nsg6
V5366
p1441
sg8
L2795L
sg9
S'Thursday, 10. May 2012 10:12PM'
p1442
ssL434L
(dp1443
g5
I0
sg58
V8651 Nw 13Th Ter
p1444
sg3
V33126
p1445
sg61
VOut of stock
p1446
sg63
VDoral
p1447
sg6
V2091
p1448
sg9
S'Thursday, 10. May 2012 10:12PM'
p1449
sg8
L434L
ssL760L
(dp1450
g19
V1158
p1451
sg34
V2473 Hackworth Rd
p1452
sg22
V35214
p1453
sg37
VLimited stock
p1454
sg39
VBirmingham
p1455
sg18
I2
sg16
S'Thursday, 10. May 2012 10:18PM'
p1456
sg21
L760L
ssL1322L
(dp1457
g5
I0
sg58
V2650 Creighton Rd
p1458
sg3
V32504
p1459
sg61
VOut of stock
p1460
sg63
VPensacola
p1461
sg6
V1224
p1462
sg9
S'Thursday, 10. May 2012 10:12PM'
p1463
sg8
L1322L
ssL3838L
(dp1464
g16
S'Thursday, 10. May 2012 10:18PM'
p1465
sg18
Nsg19
V1201
p1466
sg21
L3838L
sg22
V35071
p1467
ssL3839L
(dp1468
g3
V33615
p1469
sg5
Nsg6
V5255
p1470
sg8
L3839L
sg9
S'Thursday, 10. May 2012 10:12PM'
p1471
ssL3846L
(dp1472
g5
I0
sg58
V15017 Emerald Coast Pkwy
p1473
sg3
V32541
p1474
sg61
VOut of stock
p1475
sg63
VDestin
p1476
sg6
V1362
p1477
sg9
S'Thursday, 10. May 2012 10:12PM'
p1478
sg8
L3846L
ssL2830L
(dp1479
g3
V33513
p1480
sg5
Nsg6
V959
p1481
sg8
L2830L
sg9
S'Thursday, 10. May 2012 10:12PM'
p1482
ssL2831L
(dp1483
g3
V33713
p1484
sg5
Nsg6
V4690
p1485
sg8
L2831L
sg9
S'Thursday, 10. May 2012 10:12PM'
p1486
ssL3374L
(dp1487
g5
I0
sg58
V4965 Highway 90
p1488
sg3
V32571
p1489
sg61
VOut of stock
p1490
sg63
VMilton
p1491
sg6
V990
p1492
sg9
S'Thursday, 10. May 2012 10:12PM'
p1493
sg8
L3374L
ssL2842L
(dp1494
g3
V32703
p1495
sg5
Nsg6
V955
p1496
sg8
L2842L
sg9
S'Thursday, 10. May 2012 10:12PM'
p1497
ssL1820L
(dp1498
g3
V33873
p1499
sg5
Nsg6
V759
p1500
sg8
L1820L
sg9
S'Thursday, 10. May 2012 10:12PM'
p1501
ssL2845L
(dp1502
g3
V32937
p1503
sg5
Nsg6
V956
p1504
sg8
L2845L
sg9
S'Thursday, 10. May 2012 10:12PM'
p1505
ssL8625L
(dp1506
g115
V2084
p1507
sg117
VDecatur
p1508
sg119
VLimited Availability
p1509
sg121
S'Thursday, 10. May 2012 03:13PM'
p1510
sg123
I2
sg124
L8625L
ssL800L
(dp1511
g3
V32609
p1512
sg5
Nsg6
V538
p1513
sg8
L800L
sg9
S'Thursday, 10. May 2012 10:12PM'
p1514
ssL9002L
(dp1515
g115
V2503
p1516
sg117
VHoover West
p1517
sg119
VAvailable
p1518
sg121
S'Thursday, 10. May 2012 03:13PM'
p1519
sg123
I3
sg124
L9002L
ssL817L
(dp1520
g3
V32708
p1521
sg5
Nsg6
V5132
p1522
sg8
L817L
sg9
S'Thursday, 10. May 2012 10:12PM'
p1523
ssL822L
(dp1524
g3
V33463
p1525
sg5
Nsg6
V1398
p1526
sg8
L822L
sg9
S'Thursday, 10. May 2012 10:12PM'
p1527
ssL1849L
(dp1528
g19
V5348
p1529
sg34
V851 Ann St
p1530
sg22
V36107
p1531
sg37
VOut of stock
p1532
sg39
VMontgomery
p1533
sg18
I0
sg16
S'Thursday, 10. May 2012 10:18PM'
p1534
sg21
L1849L
ssL2875L
(dp1535
g5
I2
sg58
V3101 W Princeton St
p1536
sg3
V32808
p1537
sg61
VLimited stock
p1538
sg63
VOrlando
p1539
sg6
V4588
p1540
sg9
S'Thursday, 10. May 2012 10:12PM'
p1541
sg8
L2875L
ssL828L
(dp1542
g19
V424
p1543
sg34
V1415 7Th St S
p1544
sg22
V35045
p1545
sg37
VOut of stock
p1546
sg39
VClanton
p1547
sg18
I0
sg16
S'Thursday, 10. May 2012 10:18PM'
p1548
sg21
L828L
ssL829L
(dp1549
g3
V32119
p1550
sg5
Nsg6
V1391
p1551
sg8
L829L
sg9
S'Thursday, 10. May 2012 10:12PM'
p1552
ssL830L
(dp1553
g3
V33781
p1554
sg5
Nsg6
V1390
p1555
sg8
L830L
sg9
S'Thursday, 10. May 2012 10:12PM'
p1556
ssL198L
(dp1557
g16
S'Thursday, 10. May 2012 10:18PM'
p1558
sg18
Nsg19
V1174
p1559
sg21
L198L
sg22
V36784
p1560
ssL2881L
(dp1561
g19
V4581
p1562
sg34
V2500 Dawes Rd
p1563
sg22
V36695
p1564
sg37
VOut of stock
p1565
sg39
VMobile
p1566
sg18
I0
sg16
S'Thursday, 10. May 2012 10:18PM'
p1567
sg21
L2881L
ssL2882L
(dp1568
g16
S'Thursday, 10. May 2012 10:18PM'
p1569
sg18
Nsg19
V4580
p1570
sg21
L2882L
sg22
V35216
p1571
ssL835L
(dp1572
g3
V32828
p1573
sg5
Nsg6
V3817
p1574
sg8
L835L
sg9
S'Thursday, 10. May 2012 10:12PM'
p1575
ssL1862L
(dp1576
g3
V32063
p1577
sg5
Nsg6
V1205
p1578
sg8
L1862L
sg9
S'Thursday, 10. May 2012 10:12PM'
p1579
ssL1864L
(dp1580
g5
I0
sg58
V725 No. Tyndall Pkwy
p1581
sg3
V32404
p1582
sg61
VOut of stock
p1583
sg63
VCallaway
p1584
sg6
V1207
p1585
sg9
S'Thursday, 10. May 2012 10:12PM'
p1586
sg8
L1864L
ssL1868L
(dp1587
g3
V33598
p1588
sg5
Nsg6
V1203
p1589
sg8
L1868L
sg9
S'Thursday, 10. May 2012 10:12PM'
p1590
ssL994L
(dp1591
g3
V32935
p1592
sg5
Nsg6
V1702
p1593
sg8
L994L
sg9
S'Thursday, 10. May 2012 10:12PM'
p1594
ssL2894L
(dp1595
g3
V33458
p1596
sg5
Nsg6
V2176
p1597
sg8
L2894L
sg9
S'Thursday, 10. May 2012 10:12PM'
p1598
ssL825L
(dp1599
g16
S'Thursday, 10. May 2012 10:18PM'
p1600
sg18
Nsg19
V423
p1601
sg21
L825L
sg22
V35007
p1602
ssL1881L
(dp1603
g3
V32225
p1604
sg5
Nsg6
V1444
p1605
sg8
L1881L
sg9
S'Thursday, 10. May 2012 10:12PM'
p1606
ssL2907L
(dp1607
g19
V715
p1608
sg34
V1501 Skyland Blvd E
p1609
sg22
V35405
p1610
sg37
VOut of stock
p1611
sg39
VTuscaloosa
p1612
sg18
I0
sg16
S'Thursday, 10. May 2012 10:18PM'
p1613
sg21
L2907L
ssL1338L
(dp1614
g3
V34744
p1615
sg5
Nsg6
V2881
p1616
sg8
L1338L
sg9
S'Thursday, 10. May 2012 10:12PM'
p1617
ssL1886L
(dp1618
g5
I0
sg58
V3451 Tamiami Trl E
p1619
sg3
V34112
p1620
sg61
VOut of stock
p1621
sg63
VNaples
p1622
sg6
V1119
p1623
sg9
S'Thursday, 10. May 2012 10:12PM'
p1624
sg8
L1886L
ssL827L
(dp1625
g16
S'Thursday, 10. May 2012 10:18PM'
p1626
sg18
Nsg19
V425
p1627
sg21
L827L
sg22
V35034
p1628
ssL9063L
(dp1629
g115
V2816
p1630
sg117
VMadison
p1631
sg119
VAvailable
p1632
sg121
S'Thursday, 10. May 2012 03:13PM'
p1633
sg123
I3
sg124
L9063L
ssL2920L
(dp1634
g5
I0
sg58
V9205 Gibsonton Dr
p1635
sg3
V33534
p1636
sg61
VOut of stock
p1637
sg63
VGibsonton
p1638
sg6
V5300
p1639
sg9
S'Thursday, 10. May 2012 10:12PM'
p1640
sg8
L2920L
ssL2921L
(dp1641
g3
V33406
p1642
sg5
Nsg6
V5301
p1643
sg8
L2921L
sg9
S'Thursday, 10. May 2012 10:12PM'
p1644
ssL2922L
(dp1645
g19
V1063
p1646
sg34
V1608 W Magnolia Ave
p1647
sg22
V36340
p1648
sg37
VOut of stock
p1649
sg39
VGeneva
p1650
sg18
I0
sg16
S'Thursday, 10. May 2012 10:18PM'
p1651
sg21
L2922L
ssL1905L
(dp1652
g16
S'Thursday, 10. May 2012 10:18PM'
p1653
sg18
Nsg19
V483
p1654
sg21
L1905L
sg22
V36066
p1655
ssL147L
(dp1656
g3
V33009
p1657
sg5
Nsg6
V1996
p1658
sg8
L147L
sg9
S'Thursday, 10. May 2012 10:12PM'
p1659
ssL8058L
(dp1660
g115
V1274
p1661
sg117
VDaphne
p1662
sg119
VAvailable
p1663
sg121
S'Thursday, 10. May 2012 03:13PM'
p1664
sg123
I3
sg124
L8058L
ssL2939L
(dp1665
g3
V34769
p1666
sg5
Nsg6
V1086
p1667
sg8
L2939L
sg9
S'Thursday, 10. May 2012 10:12PM'
p1668
ssL2940L
(dp1669
g5
I0
sg58
V8701 Us Highway 19
p1670
sg3
V34668
p1671
sg61
VOut of stock
p1672
sg63
VPort Richey
p1673
sg6
V1085
p1674
sg9
S'Thursday, 10. May 2012 10:12PM'
p1675
sg8
L2940L
ssL2941L
(dp1676
g5
I0
sg58
V3838 S Semoran Blvd
p1677
sg3
V32822
p1678
sg61
VOut of stock
p1679
sg63
VOrlando
p1680
sg6
V1084
p1681
sg9
S'Thursday, 10. May 2012 10:12PM'
p1682
sg8
L2941L
ssL2942L
(dp1683
g3
V32205
p1684
sg5
Nsg6
V1083
p1685
sg8
L2942L
sg9
S'Thursday, 10. May 2012 10:12PM'
p1686
ssL2943L
(dp1687
g5
I0
sg58
V10991 San Jose Blvd Ste 1
p1688
sg3
V32223
p1689
sg61
VOut of stock
p1690
sg63
VJacksonville
p1691
sg6
V1082
p1692
sg9
S'Thursday, 10. May 2012 10:12PM'
p1693
sg8
L2943L
ssL2944L
(dp1694
g3
V32608
p1695
sg5
Nsg6
V1081
p1696
sg8
L2944L
sg9
S'Thursday, 10. May 2012 10:12PM'
p1697
ssL3564L
(dp1698
g16
S'Thursday, 10. May 2012 10:18PM'
p1699
sg18
Nsg19
V356
p1700
sg21
L3564L
sg22
V36832
p1701
ssL1930L
(dp1702
g3
V33435
p1703
sg5
Nsg6
V5911
p1704
sg8
L1930L
sg9
S'Thursday, 10. May 2012 10:12PM'
p1705
ssL908L
(dp1706
g5
I0
sg58
V33501 S Dixie Hwy
p1707
sg3
V33034
p1708
sg61
VOut of stock
p1709
sg63
VFlorida City
p1710
sg6
V2727
p1711
sg9
S'Thursday, 10. May 2012 10:12PM'
p1712
sg8
L908L
ssL912L
(dp1713
g16
S'Thursday, 10. May 2012 10:18PM'
p1714
sg18
Nsg19
V2723
p1715
sg21
L912L
sg22
V35148
p1716
ssL2961L
(dp1717
g16
S'Thursday, 10. May 2012 10:18PM'
p1718
sg18
Nsg19
V3386
p1719
sg21
L2961L
sg22
V35146
p1720
ssL2962L
(dp1721
g3
V34287
p1722
sg5
Nsg6
V3387
p1723
sg8
L2962L
sg9
S'Thursday, 10. May 2012 10:12PM'
p1724
ssL1599L
(dp1725
g5
I0
sg58
V12100 Lem Turner Rd
p1726
sg3
V32218
p1727
sg61
VOut of stock
p1728
sg63
VJacksonville
p1729
sg6
V1219
p1730
sg9
S'Thursday, 10. May 2012 10:12PM'
p1731
sg8
L1599L
ssL922L
(dp1732
g5
I0
sg58
V1111 Missouri Ave N
p1733
sg3
V33770
p1734
sg61
VOut of stock
p1735
sg63
VLargo
p1736
sg6
V1712
p1737
sg9
S'Thursday, 10. May 2012 10:12PM'
p1738
sg8
L922L
ssL2247L
(dp1739
g3
V34224
p1740
sg5
Nsg6
V1874
p1741
sg8
L2247L
sg9
S'Thursday, 10. May 2012 10:12PM'
p1742
ssL3398L
(dp1743
g5
I0
sg58
V904 Cypress Pkwy
p1744
sg3
V34759
p1745
sg61
VOut of stock
p1746
sg63
VKissimmee
p1747
sg6
V5250
p1748
sg9
S'Thursday, 10. May 2012 10:12PM'
p1749
sg8
L3398L
ssL8102L
(dp1750
g115
V1322
p1751
sg117
VFlorence
p1752
sg119
VAvailable
p1753
sg121
S'Thursday, 10. May 2012 03:13PM'
p1754
sg123
I3
sg124
L8102L
ssL1959L
(dp1755
g5
I0
sg58
V11110 Causeway Blvd
p1756
sg3
V33511
p1757
sg61
VOut of stock
p1758
sg63
VBrandon
p1759
sg6
V2387
p1760
sg9
S'Thursday, 10. May 2012 10:12PM'
p1761
sg8
L1959L
ssL1961L
(dp1762
g16
S'Thursday, 10. May 2012 10:18PM'
p1763
sg18
Nsg19
V2739
p1764
sg21
L1961L
sg22
V36507
p1765
ssL940L
(dp1766
g5
I0
sg58
V501 N Navy Blvd
p1767
sg3
V32507
p1768
sg61
VOut of stock
p1769
sg63
VPensacola
p1770
sg6
V3785
p1771
sg9
S'Thursday, 10. May 2012 10:12PM'
p1772
sg8
L940L
ssL3184L
(dp1773
g19
V700
p1774
sg34
V1501 Al Highway 14 E
p1775
sg22
V36703
p1776
sg37
VOut of stock
p1777
sg39
VSelma
p1778
sg18
I0
sg16
S'Thursday, 10. May 2012 10:18PM'
p1779
sg21
L3184L
ssL1973L
(dp1780
g19
V2760
p1781
sg34
V4206 N College Ave
p1782
sg22
V36545
p1783
sg37
VOut of stock
p1784
sg39
VJackson
p1785
sg18
I0
sg16
S'Thursday, 10. May 2012 10:18PM'
p1786
sg21
L1973L
ssL8124L
(dp1787
g115
V1346
p1788
sg117
VHuntsville West
p1789
sg119
VAvailable
p1790
sg121
S'Thursday, 10. May 2012 03:13PM'
p1791
sg123
I3
sg124
L8124L
ssL1981L
(dp1792
g3
V34953
p1793
sg5
Nsg6
V4260
p1794
sg8
L1981L
sg9
S'Thursday, 10. May 2012 10:12PM'
p1795
ssL958L
(dp1796
g5
I0
sg58
V1619 Del Prado Blvd S
p1797
sg3
V33990
p1798
sg61
VOut of stock
p1799
sg63
VCape Coral
p1800
sg6
V819
p1801
sg9
S'Thursday, 10. May 2012 10:12PM'
p1802
sg8
L958L
ssL3237L
(dp1803
g5
I0
sg58
V6294 Forest Hill Blvd
p1804
sg3
V33415
p1805
sg61
VOut of stock
p1806
sg63
VGreenacres
p1807
sg6
V1436
p1808
sg9
S'Thursday, 10. May 2012 10:12PM'
p1809
sg8
L3237L
ssL1988L
(dp1810
g16
S'Thursday, 10. May 2012 10:18PM'
p1811
sg18
Nsg19
V904
p1812
sg21
L1988L
sg22
V36535
p1813
ssL3745L
(dp1814
g16
S'Thursday, 10. May 2012 10:18PM'
p1815
sg18
Nsg19
V562
p1816
sg21
L3745L
sg22
V35094
p1817
ssL969L
(dp1818
g5
I0
sg58
V1601 Rinehart Rd
p1819
sg3
V32771
p1820
sg61
VOut of stock
p1821
sg63
VSanford
p1822
sg6
V3207
p1823
sg9
S'Thursday, 10. May 2012 10:12PM'
p1824
sg8
L969L
ssL1994L
(dp1825
g3
V34470
p1826
sg5
Nsg6
V1847
p1827
sg8
L1994L
sg9
S'Thursday, 10. May 2012 10:12PM'
p1828
ssL1995L
(dp1829
g5
I0
sg58
V3221 N Monroe St
p1830
sg3
V32303
p1831
sg61
VOut of stock
p1832
sg63
VTallahassee
p1833
sg6
V4427
p1834
sg9
S'Thursday, 10. May 2012 10:12PM'
p1835
sg8
L1995L
ssL1996L
(dp1836
g5
I0
sg58
V4700 S Flamingo Rd
p1837
sg3
V33330
p1838
sg61
VOut of stock
p1839
sg63
VCooper City
p1840
sg6
V1845
p1841
sg9
S'Thursday, 10. May 2012 10:12PM'
p1842
sg8
L1996L
ssL1997L
(dp1843
g3
V32818
p1844
sg5
Nsg6
V4425
p1845
sg8
L1997L
sg9
S'Thursday, 10. May 2012 10:12PM'
p1846
ssL3022L
(dp1847
g3
V33809
p1848
sg5
Nsg6
V1245
p1849
sg8
L3022L
sg9
S'Thursday, 10. May 2012 10:12PM'
p1850
ssL8145L
(dp1851
g115
V1367
p1852
sg117
VHuntsville South
p1853
sg119
VAvailable
p1854
sg121
S'Thursday, 10. May 2012 03:13PM'
p1855
sg123
I3
sg124
L8145L
ssL3026L
(dp1856
g5
I0
sg58
V3175 Cheney Hwy
p1857
sg3
V32780
p1858
sg61
VOut of stock
p1859
sg63
VTitusville
p1860
sg6
V649
p1861
sg9
S'Thursday, 10. May 2012 10:12PM'
p1862
sg8
L3026L
ssL982L
(dp1863
g19
V1493
p1864
sg34
V3371 S Alabama Ave
p1865
sg22
V36460
p1866
sg37
VOut of stock
p1867
sg39
VMonroeville
p1868
sg18
I0
sg16
S'Thursday, 10. May 2012 10:18PM'
p1869
sg21
L982L
ssL2553L
(dp1870
g5
I0
sg58
V11012 No. Williams S
p1871
sg3
V34432
p1872
sg61
VOut of stock
p1873
sg63
VDunnellon
p1874
sg6
V960
p1875
sg9
S'Thursday, 10. May 2012 10:12PM'
p1876
sg8
L2553L
ssL8154L
(dp1877
g115
V1376
p1878
sg117
VMobile West
p1879
sg119
VAvailable
p1880
sg121
S'Thursday, 10. May 2012 03:13PM'
p1881
sg123
I3
sg124
L8154L
ssL3505L
(dp1882
g16
S'Thursday, 10. May 2012 10:18PM'
p1883
sg18
Nsg19
V731
p1884
sg21
L3505L
sg22
V36732
p1885
ssL3039L
(dp1886
g19
V332
p1887
sg34
V6140A Univ Drive
p1888
sg22
V35806
p1889
sg37
VOut of stock
p1890
sg39
VHuntsville
p1891
sg18
I0
sg16
S'Thursday, 10. May 2012 10:18PM'
p1892
sg21
L3039L
ssL993L
(dp1893
g3
V34667
p1894
sg5
Nsg6
V5266
p1895
sg8
L993L
sg9
S'Thursday, 10. May 2012 10:12PM'
p1896
ssL3042L
(dp1897
g16
S'Thursday, 10. May 2012 10:18PM'
p1898
sg18
Nsg19
V5126
p1899
sg21
L3042L
sg22
V35960
p1900
ssL995L
(dp1901
g3
V34229
p1902
sg5
Nsg6
V5264
p1903
sg8
L995L
sg9
S'Thursday, 10. May 2012 10:12PM'
p1904
ssL3056L
(dp1905
g3
V33511
p1906
sg5
Nsg6
V3463
p1907
sg8
L3056L
sg9
S'Thursday, 10. May 2012 10:12PM'
p1908
ssL2033L
(dp1909
g3
V32773
p1910
sg5
Nsg6
V857
p1911
sg8
L2033L
sg9
S'Thursday, 10. May 2012 10:12PM'
p1912
ssL2037L
(dp1913
g16
S'Thursday, 10. May 2012 10:18PM'
p1914
sg18
Nsg19
V853
p1915
sg21
L2037L
sg22
V36695
p1916
ssL2040L
(dp1917
g3
V33898
p1918
sg5
Nsg6
V859
p1919
sg8
L2040L
sg9
S'Thursday, 10. May 2012 10:12PM'
p1920
ssL1017L
(dp1921
g16
S'Thursday, 10. May 2012 10:18PM'
p1922
sg18
Nsg19
V1124
p1923
sg21
L1017L
sg22
V35640
p1924
ssL2559L
(dp1925
g5
I0
sg58
V355 Cypress Gardens Blvd
p1926
sg3
V33880
p1927
sg61
VOut of stock
p1928
sg63
VWinter Haven
p1929
sg6
V968
p1930
sg9
S'Thursday, 10. May 2012 10:12PM'
p1931
sg8
L2559L
ssL2044L
(dp1932
g3
V32117
p1933
sg5
Nsg6
V3862
p1934
sg8
L2044L
sg9
S'Thursday, 10. May 2012 10:12PM'
p1935
ssL3069L
(dp1936
g16
S'Thursday, 10. May 2012 10:18PM'
p1937
sg18
Nsg19
V1101
p1938
sg21
L3069L
sg22
V36092
p1939
ss.