(dp1
L2049L
(dp2
S'city'
p3
VTampa
p4
sS'num'
p5
V5221
p6
sS'name'
p7
VWalmart
p8
sS'zipcode'
p9
V33604
p10
sS'last_update'
p11
S'Friday, 11. May 2012 11:27AM'
p12
sS'phone'
p13
V(813) 932-0562
p14
sS'state'
p15
VFL
p16
sS'availcode'
p17
NsS'address'
p18
V8885 N Florida Ave
p19
sS'lat'
p20
V28.0329
p21
sS'lng'
p22
V-82.454
p23
sS'id'
p24
L2049L
ssL2L
(dp25
g3
VWest Palm Beach
p26
sg5
V4446
p27
sg7
VWalmart
p28
sg13
V(561) 683-8300
p29
sS'store_address'
p30
V4225 45Th St
p31
sg9
V33407
p32
sS'availbility'
p33
VIn stock
p34
sS'store_name'
p35
VWest Palm Beach
p36
sg15
VFL
p37
sg17
I3
sg18
V4225 45Th St
p38
sg20
V26.7606
p39
sg22
V-80.1033
p40
sg11
S'Friday, 11. May 2012 11:27AM'
p41
sg24
L2L
ssL940L
(dp42
g3
VPensacola
p43
sg5
V3785
p44
sg7
VWalmart
p45
sg13
V(850) 453-6311
p46
sg30
V501 N Navy Blvd
p47
sg9
V32507
p48
sg33
VIn stock
p49
sg35
VPensacola
p50
sg15
VFL
p51
sg17
I3
sg18
V501 N Navy Blvd
p52
sg20
V30.396
p53
sg22
V-87.2799
p54
sg11
S'Friday, 11. May 2012 11:27AM'
p55
sg24
L940L
ssL2050L
(dp56
g3
VTampa
p57
sg5
V5220
p58
sg7
VWalmart
p59
sg13
V(813) 887-5175
p60
sg30
V8220 N Dale Mabry Hwy
p61
sg9
V33614
p62
sg33
VLimited stock
p63
sg35
VTampa
p64
sg15
VFL
p65
sg17
I2
sg18
V8220 N Dale Mabry Hwy
p66
sg20
V28.0207
p67
sg22
V-82.5066
p68
sg11
S'Friday, 11. May 2012 11:27AM'
p69
sg24
L2050L
ssL527L
(dp70
g3
VCoral Springs
p71
sg5
V1387
p72
sg7
VWalmart
p73
sg13
V(954) 341-4505
p74
sg30
V3801 Turtle Creek Dr
p75
sg9
V33067
p76
sg33
VLimited stock
p77
sg35
VCoral Springs
p78
sg15
VFL
p79
sg17
I2
sg18
V3801 Turtle Creek Dr
p80
sg20
V26.2747
p81
sg22
V-80.2032
p82
sg11
S'Friday, 11. May 2012 11:27AM'
p83
sg24
L527L
ssL1552L
(dp84
g3
VGulf Breeze
p85
sg5
V5623
p86
sg7
VWalmart
p87
sg9
V32561
p88
sg11
S'Friday, 11. May 2012 11:27AM'
p89
sg13
V(850) 733-5019
p90
sg15
VFL
p91
sg17
Nsg18
V334 Gulf Breeze Pkwy
p92
sg20
V30.3652
p93
sg22
V-87.1689
p94
sg24
L1552L
ssL1554L
(dp95
g3
VMiami Gardens
p96
sg5
V3311
p97
sg7
VWalmart
p98
sg13
V(305) 622-6664
p99
sg30
V19501 Nw 27Th Ave
p100
sg9
V33056
p101
sg33
VLimited stock
p102
sg35
VMiami Gardens
p103
sg15
VFL
p104
sg17
I2
sg18
V19501 Nw 27Th Ave
p105
sg20
V25.9535
p106
sg22
V-80.2443
p107
sg11
S'Friday, 11. May 2012 11:27AM'
p108
sg24
L1554L
ssL3022L
(dp109
g3
VLakeland
p110
sg5
V1245
p111
sg7
VWalmart
p112
sg13
V(863) 859-3626
p113
sg30
V5800 Us Highway 98 N
p114
sg9
V33809
p115
sg33
VLimited stock
p116
sg35
VLakeland
p117
sg15
VFL
p118
sg17
I2
sg18
V5800 Us Highway 98 N
p119
sg20
V28.1198
p120
sg22
V-81.9749
p121
sg11
S'Friday, 11. May 2012 11:27AM'
p122
sg24
L3022L
ssL3759L
(dp123
g3
VPalm Coast
p124
sg5
V1182
p125
sg7
VWalmart
p126
sg13
V(386) 446-8486
p127
sg30
V174 Cypress Point Pkwy
p128
sg9
V32164
p129
sg33
VIn stock
p130
sg35
VPalm Coast
p131
sg15
VFL
p132
sg17
I3
sg18
V174 Cypress Point Pkwy
p133
sg20
V29.553
p134
sg22
V-81.2199
p135
sg11
S'Friday, 11. May 2012 11:27AM'
p136
sg24
L3759L
ssL1054L
(dp137
g3
VNaples
p138
sg5
V4354
p139
sg7
VWalmart
p140
sg9
V34105
p141
sg11
S'Friday, 11. May 2012 11:27AM'
p142
sg13
V(239) 213-1183
p143
sg15
VFL
p144
sg17
Nsg18
V5010 Airport Pulling Rd N
p145
sg20
V26.2073
p146
sg22
V-81.7664
p147
sg24
L1054L
ssL2080L
(dp148
g3
VAuburndale
p149
sg5
V718
p150
sg7
VWalmart
p151
sg13
V(863) 967-1164
p152
sg30
V2120 Us Highway 92 W
p153
sg9
V33823
p154
sg33
VLimited stock
p155
sg35
VAuburndale
p156
sg15
VFL
p157
sg17
I2
sg18
V2120 Us Highway 92 W
p158
sg20
V28.0601
p159
sg22
V-81.816
p160
sg11
S'Friday, 11. May 2012 11:27AM'
p161
sg24
L2080L
ssL2736L
(dp162
g3
VTampa
p163
sg5
V5760
p164
sg7
VWalmart
p165
sg9
V33606
p166
sg11
S'Friday, 11. May 2012 11:27AM'
p167
sg13
V(813) 254-6125
p168
sg15
VFL
p169
sg17
Nsg18
V1601 W Kennedy Blvd
p170
sg20
V27.9451
p171
sg22
V-82.4757
p172
sg24
L2736L
ssL36L
(dp173
g3
VMiami
p174
sg5
V5854
p175
sg7
VWalmart
p176
sg13
V(305) 351-0725
p177
sg30
V8400 Coral Way
p178
sg9
V33155
p179
sg33
VIn stock
p180
sg35
VMiami
p181
sg15
VFL
p182
sg17
I3
sg18
V8400 Coral Way
p183
sg20
V25.7494
p184
sg22
V-80.3341
p185
sg11
S'Friday, 11. May 2012 11:27AM'
p186
sg24
L36L
ssL3109L
(dp187
g3
VCrestview
p188
sg5
V944
p189
sg7
VWalmart
p190
sg13
V(850) 682-8001
p191
sg30
V3351 S Ferdon Blvd
p192
sg9
V32536
p193
sg33
VIn stock
p194
sg35
VCrestview
p195
sg15
VFL
p196
sg17
I3
sg18
V3351 S Ferdon Blvd
p197
sg20
V30.7279
p198
sg22
V-86.5672
p199
sg11
S'Friday, 11. May 2012 11:27AM'
p200
sg24
L3109L
ssL3110L
(dp201
g3
VClearwater
p202
sg5
V4667
p203
sg7
VWalmart
p204
sg9
V33755
p205
sg11
S'Friday, 11. May 2012 11:27AM'
p206
sg13
V(727) 441-4320
p207
sg15
VFL
p208
sg17
Nsg18
V1803 N Highland Ave
p209
sg20
V27.9869
p210
sg22
V-82.7743
p211
sg24
L3110L
ssL2599L
(dp212
g3
VTampa
p213
sg5
V2740
p214
sg7
VWalmart
p215
sg13
V(813) 994-6543
p216
sg30
V19910 Bruce B Downs Blvd
p217
sg9
V33647
p218
sg33
VIn stock
p219
sg35
VTampa
p220
sg15
VFL
p221
sg17
I3
sg18
V19910 Bruce B Downs Blvd
p222
sg20
V28.1545
p223
sg22
V-82.3551
p224
sg11
S'Friday, 11. May 2012 11:27AM'
p225
sg24
L2599L
ssL3112L
(dp226
g3
VCasselberry
p227
sg5
V943
p228
sg7
VWalmart
p229
sg13
V(407) 679-0377
p230
sg30
V1239 State Road 436 Ste 101
p231
sg9
V32707
p232
sg33
VLimited stock
p233
sg35
VCasselberry
p234
sg15
VFL
p235
sg17
I2
sg18
V1239 State Road 436 Ste 101
p236
sg20
V28.6353
p237
sg22
V-81.3234
p238
sg11
S'Friday, 11. May 2012 11:27AM'
p239
sg24
L3112L
ssL3114L
(dp240
g3
VBrandon
p241
sg5
V941
p242
sg7
VWalmart
p243
sg13
V(813) 681-8136
p244
sg30
V949 E Bloomingdale Ave
p245
sg9
V33511
p246
sg33
VIn stock
p247
sg35
VBrandon
p248
sg15
VFL
p249
sg17
I3
sg18
V949 E Bloomingdale Ave
p250
sg20
V27.8919
p251
sg22
V-82.2708
p252
sg11
S'Friday, 11. May 2012 11:27AM'
p253
sg24
L3114L
ssL3116L
(dp254
g3
VPerry
p255
sg5
V5172
p256
sg7
VWalmart
p257
sg9
V32348
p258
sg11
S'Friday, 11. May 2012 11:27AM'
p259
sg13
V(850) 223-4179
p260
sg15
VFL
p261
sg17
Nsg18
V1900 S Jefferson St
p262
sg20
V30.1067
p263
sg22
V-83.5816
p264
sg24
L3116L
ssL2605L
(dp265
g3
VPlantation
p266
sg5
V4595
p267
sg7
VWalmart
p268
sg9
V33322
p269
sg11
S'Friday, 11. May 2012 11:27AM'
p270
sg13
V(954) 472-3134
p271
sg15
VFL
p272
sg17
Nsg18
V1885 N Pine Island Rd
p273
sg20
V26.1493
p274
sg22
V-80.2701
p275
sg24
L2605L
ssL1373L
(dp276
g3
VPort St Lucie
p277
sg5
V929
p278
sg7
VWalmart
p279
sg13
V(772) 335-5359
p280
sg30
V10855 So. Us Hwy #1
p281
sg9
V34952
p282
sg33
VIn stock
p283
sg35
VPort St Lucie
p284
sg15
VFL
p285
sg17
I3
sg18
V10855 So. Us Hwy #1
p286
sg20
V27.2655
p287
sg22
V-80.2873
p288
sg11
S'Friday, 11. May 2012 11:27AM'
p289
sg24
L1373L
ssL2611L
(dp290
g3
VOrlando
p291
sg5
V890
p292
sg7
VWalmart
p293
sg13
V(407) 281-8941
p294
sg30
V11250 E Colonial Dr
p295
sg9
V32817
p296
sg33
VIn stock
p297
sg35
VOrlando
p298
sg15
VFL
p299
sg17
I3
sg18
V11250 E Colonial Dr
p300
sg20
V28.5673
p301
sg22
V-81.2194
p302
sg11
S'Friday, 11. May 2012 11:27AM'
p303
sg24
L2611L
ssL1589L
(dp304
g3
VBrooksville
p305
sg5
V1213
p306
sg7
VWalmart
p307
sg13
V(352) 597-3807
p308
sg30
V13300 Cortez Blvd
p309
sg9
V34613
p310
sg33
VLimited stock
p311
sg35
VBrooksville
p312
sg15
VFL
p313
sg17
I2
sg18
V13300 Cortez Blvd
p314
sg20
V28.5333
p315
sg22
V-82.5036
p316
sg11
S'Friday, 11. May 2012 11:27AM'
p317
sg24
L1589L
ssL180L
(dp318
g3
VCape Coral
p319
sg5
V5453
p320
sg7
VWalmart
p321
sg9
V33991
p322
sg11
S'Friday, 11. May 2012 11:27AM'
p323
sg13
V(239) 458-7530
p324
sg15
VFL
p325
sg17
Nsg18
V505 Sw Pine Island Rd
p326
sg20
V26.6458
p327
sg22
V-81.9847
p328
sg24
L180L
ssL3130L
(dp329
g3
VNaples
p330
sg5
V3417
p331
sg7
VWalmart
p332
sg13
V(239) 417-1252
p333
sg30
V6650 Collier Blvd
p334
sg9
V34114
p335
sg33
VLimited stock
p336
sg35
VNaples
p337
sg15
VFL
p338
sg17
I2
sg18
V6650 Collier Blvd
p339
sg20
V26.0623
p340
sg22
V-81.6987
p341
sg11
S'Friday, 11. May 2012 11:27AM'
p342
sg24
L3130L
ssL266L
(dp343
g3
VAltamonte Springs
p344
sg5
V1374
p345
sg7
VWalmart
p346
sg13
V(407) 774-9966
p347
sg30
V200 S State Road 434
p348
sg9
V32714
p349
sg33
VLimited stock
p350
sg35
VAltamonte Springs
p351
sg15
VFL
p352
sg17
I2
sg18
V200 S State Road 434
p353
sg20
V28.66
p354
sg22
V-81.4197
p355
sg11
S'Friday, 11. May 2012 11:27AM'
p356
sg24
L266L
ssL3647L
(dp357
g3
VFort Myers
p358
sg5
V987
p359
sg7
VWalmart
p360
sg13
V(239) 437-1880
p361
sg30
V14821 Ben C Pratt/6 Mile Cypre
p362
sg9
V33912
p363
sg33
VLimited stock
p364
sg35
VFort Myers
p365
sg15
VFL
p366
sg17
I2
sg18
V14821 Ben C Pratt/6 Mile Cypre
p367
sg20
V26.527
p368
sg22
V-81.8708
p369
sg11
S'Friday, 11. May 2012 11:27AM'
p370
sg24
L3647L
ssL580L
(dp371
g3
VSanta Rosa Beach
p372
sg5
V5872
p373
sg7
VWalmart
p374
sg9
V32459
p375
sg11
S'Friday, 11. May 2012 11:27AM'
p376
sg13
V(850) 622-6237
p377
sg15
VFL
p378
sg17
Nsg18
V6712 Us Highway 98 W
p379
sg20
V30.3765
p380
sg22
V-86.2887
p381
sg24
L580L
ssL2230L
(dp382
g3
VStuart
p383
sg5
V1087
p384
sg7
VWalmart
p385
sg13
V(772) 288-4749
p386
sg30
V4001 Se Federal Hwy
p387
sg9
V34997
p388
sg33
VIn stock
p389
sg35
VStuart
p390
sg15
VFL
p391
sg17
I3
sg18
V4001 Se Federal Hwy
p392
sg20
V27.1579
p393
sg22
V-80.2184
p394
sg11
S'Friday, 11. May 2012 11:27AM'
p395
sg24
L2230L
ssL582L
(dp396
g3
VDunedin
p397
sg5
V5876
p398
sg7
VWalmart
p399
sg9
V34698
p400
sg11
S'Friday, 11. May 2012 11:27AM'
p401
sg13
V(727) 431-0152
p402
sg15
VFL
p403
sg17
Nsg18
V2102 Main St
p404
sg20
V28.0202
p405
sg22
V-82.751
p406
sg24
L582L
ssL583L
(dp407
g3
VOrlando
p408
sg5
V5875
p409
sg7
VWalmart
p410
sg9
V32837
p411
sg11
S'Friday, 11. May 2012 11:27AM'
p412
sg13
V(407) 541-1273
p413
sg15
VFL
p414
sg17
Nsg18
V12550 S Orange Blossom Trl
p415
sg20
V28.382
p416
sg22
V-81.4054
p417
sg24
L583L
ssL1099L
(dp418
g3
VPompano Beach
p419
sg5
V4617
p420
sg7
VWalmart
p421
sg9
V33062
p422
sg11
S'Friday, 11. May 2012 11:27AM'
p423
sg13
V(954) 781-8774
p424
sg15
VFL
p425
sg17
Nsg18
V1199 S Federal Hwy
p426
sg20
V26.2145
p427
sg22
V-80.1062
p428
sg24
L1099L
ssL2639L
(dp429
g3
VNorth Miami Beach
p430
sg5
V3235
p431
sg7
VWalmart
p432
sg13
V(305) 949-5881
p433
sg30
V1425 Ne 163Rd St
p434
sg9
V33162
p435
sg33
VIn stock
p436
sg35
VNorth Miami Beach
p437
sg15
VFL
p438
sg17
I3
sg18
V1425 Ne 163Rd St
p439
sg20
V25.9283
p440
sg22
V-80.1712
p441
sg11
S'Friday, 11. May 2012 11:27AM'
p442
sg24
L2639L
ssL1620L
(dp443
g3
VInverness
p444
sg5
V1104
p445
sg7
VWalmart
p446
sg13
V(352) 637-2300
p447
sg30
V2461 E Gulf To Lake Hwy
p448
sg9
V34453
p449
sg33
VLimited stock
p450
sg35
VInverness
p451
sg15
VFL
p452
sg17
I2
sg18
V2461 E Gulf To Lake Hwy
p453
sg20
V28.8577
p454
sg22
V-82.3926
p455
sg11
S'Friday, 11. May 2012 11:27AM'
p456
sg24
L1620L
ssL3668L
(dp457
g3
VBoynton Beach
p458
sg5
V2789
p459
sg7
VWalmart
p460
sg13
V(561) 742-0718
p461
sg30
V3200 Old Boynton Rd
p462
sg9
V33436
p463
sg33
VIn stock
p464
sg35
VBoynton Beach
p465
sg15
VFL
p466
sg17
I3
sg18
V3200 Old Boynton Rd
p467
sg20
V26.5313
p468
sg22
V-80.0944
p469
sg11
S'Friday, 11. May 2012 11:27AM'
p470
sg24
L3668L
ssL2651L
(dp471
g3
VCoral Springs
p472
sg5
V2963
p473
sg7
VWalmart
p474
sg13
V(954) 757-0331
p475
sg30
V6001 Coral Ridge Dr
p476
sg9
V33076
p477
sg33
VLimited stock
p478
sg35
VCoral Springs
p479
sg15
VFL
p480
sg17
I2
sg18
V6001 Coral Ridge Dr
p481
sg20
V26.3033
p482
sg22
V-80.2744
p483
sg11
S'Friday, 11. May 2012 11:27AM'
p484
sg24
L2651L
ssL2652L
(dp485
g3
VPompano Beach
p486
sg5
V2962
p487
sg7
VWalmart
p488
sg13
V(954) 971-7170
p489
sg30
V2300 W Atlantic Blvd
p490
sg9
V33069
p491
sg33
VLimited stock
p492
sg35
VPompano Beach
p493
sg15
VFL
p494
sg17
I2
sg18
V2300 W Atlantic Blvd
p495
sg20
V26.2302
p496
sg22
V-80.1555
p497
sg11
S'Friday, 11. May 2012 11:27AM'
p498
sg24
L2652L
ssL3770L
(dp499
g3
VPort Charlotte
p500
sg5
V721
p501
sg7
VWalmart
p502
sg13
V(941) 625-2399
p503
sg30
V19100 Murdock Cir
p504
sg9
V33948
p505
sg33
VIn stock
p506
sg35
VPort Charlotte
p507
sg15
VFL
p508
sg17
I3
sg18
V19100 Murdock Cir
p509
sg20
V27.0139
p510
sg22
V-82.1397
p511
sg11
S'Friday, 11. May 2012 11:27AM'
p512
sg24
L3770L
ssL2668L
(dp513
g3
VNew Smyrna Beach
p514
sg5
V1079
p515
sg7
VWalmart
p516
sg13
V(386) 427-5767
p517
sg30
V3155 State Rd 44
p518
sg9
V32168
p519
sg33
VIn stock
p520
sg35
VNew Smyrna Beach
p521
sg15
VFL
p522
sg17
I3
sg18
V3155 State Rd 44
p523
sg20
V29.0153
p524
sg22
V-80.9924
p525
sg11
S'Friday, 11. May 2012 11:27AM'
p526
sg24
L2668L
ssL3181L
(dp527
g3
VMount Dora
p528
sg5
V705
p529
sg7
VWalmart
p530
sg13
V(352) 735-3000
p531
sg30
V17030 Us Highway 441
p532
sg9
V32757
p533
sg33
VIn stock
p534
sg35
VMount Dora
p535
sg15
VFL
p536
sg17
I3
sg18
V17030 Us Highway 441
p537
sg20
V28.8177
p538
sg22
V-81.6731
p539
sg11
S'Friday, 11. May 2012 11:27AM'
p540
sg24
L3181L
ssL957L
(dp541
g3
VPanama City Beach
p542
sg5
V818
p543
sg7
VWalmart
p544
sg13
V(850) 234-1989
p545
sg30
V10270 Front Beach Rd
p546
sg9
V32407
p547
sg33
VIn stock
p548
sg35
VPanama City Beach
p549
sg15
VFL
p550
sg17
I3
sg18
V10270 Front Beach Rd
p551
sg20
V30.1799
p552
sg22
V-85.8049
p553
sg11
S'Friday, 11. May 2012 11:27AM'
p554
sg24
L957L
ssL1136L
(dp555
g3
VClearwater
p556
sg5
V2081
p557
sg7
VWalmart
p558
sg13
V(727) 724-7777
p559
sg30
V23106 Us Highway 19 N
p560
sg9
V33765
p561
sg33
VLimited stock
p562
sg35
VClearwater
p563
sg15
VFL
p564
sg17
I2
sg18
V23106 Us Highway 19 N
p565
sg20
V27.9864
p566
sg22
V-82.7314
p567
sg11
S'Friday, 11. May 2012 11:27AM'
p568
sg24
L1136L
ssL2920L
(dp569
g3
VGibsonton
p570
sg5
V5300
p571
sg7
VWalmart
p572
sg13
V(813) 672-0739
p573
sg30
V9205 Gibsonton Dr
p574
sg9
V33534
p575
sg33
VIn stock
p576
sg35
VGibsonton
p577
sg15
VFL
p578
sg17
I3
sg18
V9205 Gibsonton Dr
p579
sg20
V27.8475
p580
sg22
V-82.3543
p581
sg11
S'Friday, 11. May 2012 11:27AM'
p582
sg24
L2920L
ssL2163L
(dp583
g3
VFort Myers
p584
sg5
V5034
p585
sg7
VWalmart
p586
sg13
V(239) 274-2920
p587
sg30
V4770 Colonial Blvd
p588
sg9
V33966
p589
sg33
VIn stock
p590
sg35
VFort Myers
p591
sg15
VFL
p592
sg17
I3
sg18
V4770 Colonial Blvd
p593
sg20
V26.6119
p594
sg22
V-81.8166
p595
sg11
S'Friday, 11. May 2012 11:27AM'
p596
sg24
L2163L
ssL1862L
(dp597
g3
VMacclenny
p598
sg5
V1205
p599
sg7
VWalmart
p600
sg13
V(904) 259-4760
p601
sg30
V9218 S State Road 228
p602
sg9
V32063
p603
sg33
VIn stock
p604
sg35
VMacclenny
p605
sg15
VFL
p606
sg17
I3
sg18
V9218 S State Road 228
p607
sg20
V30.2637
p608
sg22
V-82.1074
p609
sg11
S'Friday, 11. May 2012 11:27AM'
p610
sg24
L1862L
ssL2166L
(dp611
g3
VSebastian
p612
sg5
V1068
p613
sg7
VWalmart
p614
sg13
V(772) 589-8528
p615
sg30
V2001 Us Highway #1
p616
sg9
V32958
p617
sg33
VIn stock
p618
sg35
VSebastian
p619
sg15
VFL
p620
sg17
I3
sg18
V2001 Us Highway #1
p621
sg20
V27.8268
p622
sg22
V-80.4785
p623
sg11
S'Friday, 11. May 2012 11:27AM'
p624
sg24
L2166L
ssL3704L
(dp625
g3
VOrange Park
p626
sg5
V2920
p627
sg7
VWalmart
p628
sg13
V(904) 278-1836
p629
sg30
V1505 County Road 220
p630
sg9
V32003
p631
sg33
VIn stock
p632
sg35
VOrange Park
p633
sg15
VFL
p634
sg17
I3
sg18
V1505 County Road 220
p635
sg20
V30.1012
p636
sg22
V-81.7069
p637
sg11
S'Friday, 11. May 2012 11:27AM'
p638
sg24
L3704L
ssL2493L
(dp639
g3
VOrlando
p640
sg5
V3617
p641
sg7
VWalmart
p642
sg9
V32828
p643
sg11
S'Friday, 11. May 2012 11:27AM'
p644
sg13
V(407) 380-0384
p645
sg15
VFL
p646
sg17
Nsg18
V600 S Alafaya Trl
p647
sg20
V28.5331
p648
sg22
V-81.2022
p649
sg24
L2493L
ssL3706L
(dp650
g3
VQuincy
p651
sg5
V488
p652
sg7
VWalmart
p653
sg13
V(850) 875-1661
p654
sg30
V1940 Pat Thomas Pkwy
p655
sg9
V32351
p656
sg33
VLimited stock
p657
sg35
VQuincy
p658
sg15
VFL
p659
sg17
I2
sg18
V1940 Pat Thomas Pkwy
p660
sg20
V30.5564
p661
sg22
V-84.5935
p662
sg11
S'Friday, 11. May 2012 11:27AM'
p663
sg24
L3706L
ssL1659L
(dp664
g3
VLargo
p665
sg5
V5831
p666
sg7
VWalmart
p667
sg9
V33774
p668
sg11
S'Friday, 11. May 2012 11:27AM'
p669
sg13
V(727) 593-9294
p670
sg15
VFL
p671
sg17
Nsg18
V13817 Walsingham Rd
p672
sg20
V27.8814
p673
sg22
V-82.83
p674
sg24
L1659L
ssL2442L
(dp675
g3
VGreenacres
p676
sg5
V5758
p677
sg7
VWalmart
p678
sg9
V33467
p679
sg11
S'Friday, 11. May 2012 11:27AM'
p680
sg13
V(561) 964-6337
p681
sg15
VFL
p682
sg17
Nsg18
V3911 S Jog Rd
p683
sg20
V26.6214
p684
sg22
V-80.1476
p685
sg24
L2442L
ssL3264L
(dp686
g3
VJacksonville
p687
sg5
V3702
p688
sg7
VWalmart
p689
sg13
V(904) 751-5552
p690
sg30
V13227 City Square Dr
p691
sg9
V32218
p692
sg33
VLimited stock
p693
sg35
VJacksonville
p694
sg15
VFL
p695
sg17
I2
sg18
V13227 City Square Dr
p696
sg20
V30.4808
p697
sg22
V-81.645
p698
sg11
S'Friday, 11. May 2012 11:27AM'
p699
sg24
L3264L
ssL2691L
(dp700
g3
VJacksonville
p701
sg5
V1090
p702
sg7
VWalmart
p703
sg13
V(904) 772-0011
p704
sg30
V6767 103Rd St
p705
sg9
V32210
p706
sg33
VIn stock
p707
sg35
VJacksonville
p708
sg15
VFL
p709
sg17
I3
sg18
V6767 103Rd St
p710
sg20
V30.2483
p711
sg22
V-81.7513
p712
sg11
S'Friday, 11. May 2012 11:27AM'
p713
sg24
L2691L
ssL648L
(dp714
g3
VTallahassee
p715
sg5
V4520
p716
sg7
VWalmart
p717
sg13
V(850) 656-2151
p718
sg30
V4021 Lagniappe Way
p719
sg9
V32317
p720
sg33
VIn stock
p721
sg35
VTallahassee
p722
sg15
VFL
p723
sg17
I3
sg18
V4021 Lagniappe Way
p724
sg20
V30.4602
p725
sg22
V-84.2165
p726
sg11
S'Friday, 11. May 2012 11:27AM'
p727
sg24
L648L
ssL2699L
(dp728
g3
VOrlando
p729
sg5
V4332
p730
sg7
VWalmart
p731
sg13
V(407) 351-2229
p732
sg30
V8990 Turkey Lake Rd
p733
sg9
V32819
p734
sg33
VLimited stock
p735
sg35
VOrlando
p736
sg15
VFL
p737
sg17
I2
sg18
V8990 Turkey Lake Rd
p738
sg20
V28.4402
p739
sg22
V-81.4797
p740
sg11
S'Friday, 11. May 2012 11:27AM'
p741
sg24
L2699L
ssL1165L
(dp742
g3
VPalm Bay
p743
sg5
V5455
p744
sg7
VWalmart
p745
sg13
V(321) 723-2171
p746
sg30
V1040 Malabar Rd Se
p747
sg9
V32907
p748
sg33
VIn stock
p749
sg35
VPalm Bay
p750
sg15
VFL
p751
sg17
I3
sg18
V1040 Malabar Rd Se
p752
sg20
V27.9977
p753
sg22
V-80.6454
p754
sg11
S'Friday, 11. May 2012 11:27AM'
p755
sg24
L1165L
ssL1645L
(dp756
g3
VBradenton
p757
sg5
V5727
p758
sg7
VWalmart
p759
sg13
V(941) 799-5538
p760
sg30
V5810 Ranch Lake Blvd
p761
sg9
V34202
p762
sg33
VIn stock
p763
sg35
VBradenton
p764
sg15
VFL
p765
sg17
I3
sg18
V5810 Ranch Lake Blvd
p766
sg20
V27.4391
p767
sg22
V-82.457
p768
sg11
S'Friday, 11. May 2012 11:27AM'
p769
sg24
L1645L
ssL3219L
(dp770
g3
VPort Orange
p771
sg5
V582
p772
sg7
VWalmart
p773
sg13
V(386) 756-2711
p774
sg30
V1590 Dunlawton Ave
p775
sg9
V32127
p776
sg33
VIn stock
p777
sg35
VPort Orange
p778
sg15
VFL
p779
sg17
I3
sg18
V1590 Dunlawton Ave
p780
sg20
V29.1161
p781
sg22
V-81.0235
p782
sg11
S'Friday, 11. May 2012 11:27AM'
p783
sg24
L3219L
ssL2187L
(dp784
g3
VTallahassee
p785
sg5
V1077
p786
sg7
VWalmart
p787
sg13
V(850) 656-2732
p788
sg30
V3535 Apalachee Pkwy
p789
sg9
V32311
p790
sg33
VLimited stock
p791
sg35
VTallahassee
p792
sg15
VFL
p793
sg17
I2
sg18
V3535 Apalachee Pkwy
p794
sg20
V30.4276
p795
sg22
V-84.2208
p796
sg11
S'Friday, 11. May 2012 11:27AM'
p797
sg24
L2187L
ssL3221L
(dp798
g3
VBartow
p799
sg5
V580
p800
sg7
VWalmart
p801
sg13
V(863) 533-5400
p802
sg30
V1050 E Van Fleet Dr
p803
sg9
V33830
p804
sg33
VIn stock
p805
sg35
VBartow
p806
sg15
VFL
p807
sg17
I3
sg18
V1050 E Van Fleet Dr
p808
sg20
V27.9042
p809
sg22
V-81.8444
p810
sg11
S'Friday, 11. May 2012 11:27AM'
p811
sg24
L3221L
ssL3734L
(dp812
g3
VZephyrhills
p813
sg5
V706
p814
sg7
VWalmart
p815
sg13
V(813) 782-1957
p816
sg30
V7631 Gall Blvd
p817
sg9
V33541
p818
sg33
VIn stock
p819
sg35
VZephyrhills
p820
sg15
VFL
p821
sg17
I3
sg18
V7631 Gall Blvd
p822
sg20
V28.2705
p823
sg22
V-82.1898
p824
sg11
S'Friday, 11. May 2012 11:27AM'
p825
sg24
L3734L
ssL1403L
(dp826
g3
VLehigh Acres
p827
sg5
V2237
p828
sg7
VWalmart
p829
sg13
V(239) 368-5700
p830
sg30
V2523 Lee Blvd
p831
sg9
V33971
p832
sg33
VLimited stock
p833
sg35
VLehigh Acres
p834
sg15
VFL
p835
sg17
I2
sg18
V2523 Lee Blvd
p836
sg20
V26.6144
p837
sg22
V-81.6645
p838
sg11
S'Friday, 11. May 2012 11:27AM'
p839
sg24
L1403L
ssL2842L
(dp840
g3
VApopka
p841
sg5
V955
p842
sg7
VWalmart
p843
sg13
V(407) 889-8668
p844
sg30
V1700 S Org Blsmtrail
p845
sg9
V32703
p846
sg33
VLimited stock
p847
sg35
VApopka
p848
sg15
VFL
p849
sg17
I2
sg18
V1700 S Org Blsmtrail
p850
sg20
V28.6504
p851
sg22
V-81.4678
p852
sg11
S'Friday, 11. May 2012 11:27AM'
p853
sg24
L2842L
ssL1694L
(dp854
g3
VPensacola
p855
sg5
V3484
p856
sg7
VWalmart
p857
sg13
V(850) 458-5550
p858
sg30
V2951 S Blue Angel Pkwy
p859
sg9
V32506
p860
sg33
VIn stock
p861
sg35
VPensacola
p862
sg15
VFL
p863
sg17
I3
sg18
V2951 S Blue Angel Pkwy
p864
sg20
V30.3603
p865
sg22
V-87.3577
p866
sg11
S'Friday, 11. May 2012 11:27AM'
p867
sg24
L1694L
ssL1697L
(dp868
g3
VWest Palm Beach
p869
sg5
V4560
p870
sg7
VWalmart
p871
sg9
V33411
p872
sg11
S'Friday, 11. May 2012 11:27AM'
p873
sg13
V(561) 683-6909
p874
sg15
VFL
p875
sg17
Nsg18
V6901 Okeechobee Blvd
p876
sg20
V26.7102
p877
sg22
V-80.1504
p878
sg24
L1697L
ssL3746L
(dp879
g3
VOrange City
p880
sg5
V563
p881
sg7
VWalmart
p882
sg13
V(386) 775-1500
p883
sg30
V2400 Veterans Memorial Pkwy
p884
sg9
V32763
p885
sg33
VLimited stock
p886
sg35
VOrange City
p887
sg15
VFL
p888
sg17
I2
sg18
V2400 Veterans Memorial Pkwy
p889
sg20
V28.9119
p890
sg22
V-81.2803
p891
sg11
S'Friday, 11. May 2012 11:27AM'
p892
sg24
L3746L
ssL2587L
(dp893
g3
VNavarre
p894
sg5
V3439
p895
sg7
VWalmart
p896
sg13
V(850) 939-3998
p897
sg30
V9360 Navarre Pkwy
p898
sg9
V32566
p899
sg33
VIn stock
p900
sg35
VNavarre
p901
sg15
VFL
p902
sg17
I3
sg18
V9360 Navarre Pkwy
p903
sg20
V30.41
p904
sg22
V-86.8374
p905
sg11
S'Friday, 11. May 2012 11:27AM'
p906
sg24
L2587L
ssL3237L
(dp907
g3
VGreenacres
p908
sg5
V1436
p909
sg7
VWalmart
p910
sg13
V(561) 966-3101
p911
sg30
V6294 Forest Hill Blvd
p912
sg9
V33415
p913
sg33
VIn stock
p914
sg35
VGreenacres
p915
sg15
VFL
p916
sg17
I3
sg18
V6294 Forest Hill Blvd
p917
sg20
V26.6495
p918
sg22
V-80.1426
p919
sg11
S'Friday, 11. May 2012 11:27AM'
p920
sg24
L3237L
ssL113L
(dp921
g3
VClermont
p922
sg5
V5299
p923
sg7
VWalmart
p924
sg13
V(352) 536-2750
p925
sg30
V550 Us Highway 27
p926
sg9
V34714
p927
sg33
VIn stock
p928
sg35
VClermont
p929
sg15
VFL
p930
sg17
I3
sg18
V550 Us Highway 27
p931
sg20
V28.3543
p932
sg22
V-81.6741
p933
sg11
S'Friday, 11. May 2012 11:27AM'
p934
sg24
L113L
ssL680L
(dp935
g3
VMelbourne
p936
sg5
V3538
p937
sg7
VWalmart
p938
sg13
V(321) 242-0225
p939
sg30
V8500 N Wickham Rd
p940
sg9
V32940
p941
sg33
VIn stock
p942
sg35
VMelbourne
p943
sg15
VFL
p944
sg17
I3
sg18
V8500 N Wickham Rd
p945
sg20
V28.2325
p946
sg22
V-80.7219
p947
sg11
S'Friday, 11. May 2012 11:27AM'
p948
sg24
L680L
ssL170L
(dp949
g3
VNaples
p950
sg5
V5055
p951
sg7
VWalmart
p952
sg13
V(239) 455-1131
p953
sg30
V9885 Collier Blvd
p954
sg9
V34114
p955
sg33
VIn stock
p956
sg35
VNaples
p957
sg15
VFL
p958
sg17
I3
sg18
V9885 Collier Blvd
p959
sg20
V26.1521
p960
sg22
V-81.6902
p961
sg11
S'Friday, 11. May 2012 11:27AM'
p962
sg24
L170L
ssL3243L
(dp963
g3
VMiami Gardens
p964
sg5
V3397
p965
sg7
VWalmart
p966
sg13
V(305) 651-4661
p967
sg30
V17650 Nw 2Nd Ave
p968
sg9
V33169
p969
sg33
VLimited stock
p970
sg35
VMiami Gardens
p971
sg15
VFL
p972
sg17
I2
sg18
V17650 Nw 2Nd Ave
p973
sg20
V25.934
p974
sg22
V-80.2064
p975
sg11
S'Friday, 11. May 2012 11:27AM'
p976
sg24
L3243L
ssL175L
(dp977
g3
VLake Park
p978
sg5
V3348
p979
sg7
VWalmart
p980
sg13
V(561) 842-8113
p981
sg30
V101 N Congress Ave
p982
sg9
V33403
p983
sg33
VLimited stock
p984
sg35
VLake Park
p985
sg15
VFL
p986
sg17
I2
sg18
V101 N Congress Ave
p987
sg20
V26.7958
p988
sg22
V-80.0866
p989
sg11
S'Friday, 11. May 2012 11:27AM'
p990
sg24
L175L
ssL1200L
(dp991
g3
VSunrise
p992
sg5
V2151
p993
sg7
VWalmart
p994
sg13
V(954) 845-0581
p995
sg30
V12555 W Sunrise Blvd
p996
sg9
V33323
p997
sg33
VIn stock
p998
sg35
VSunrise
p999
sg15
VFL
p1000
sg17
I3
sg18
V12555 W Sunrise Blvd
p1001
sg20
V26.1453
p1002
sg22
V-80.3159
p1003
sg11
S'Friday, 11. May 2012 11:27AM'
p1004
sg24
L1200L
ssL178L
(dp1005
g3
VCape Coral
p1006
sg5
V5451
p1007
sg7
VWalmart
p1008
sg9
V33914
p1009
sg11
S'Friday, 11. May 2012 11:27AM'
p1010
sg13
V(239) 540-2245
p1011
sg15
VFL
p1012
sg17
Nsg18
V3920 Skyline Blvd
p1013
sg20
V26.5787
p1014
sg22
V-82.0065
p1015
sg24
L178L
ssL3252L
(dp1016
g3
VSunrise
p1017
sg5
V1349
p1018
sg7
VWalmart
p1019
sg13
V(954) 749-3111
p1020
sg30
V3306 N University Dr
p1021
sg9
V33351
p1022
sg33
VIn stock
p1023
sg35
VSunrise
p1024
sg15
VFL
p1025
sg17
I3
sg18
V3306 N University Dr
p1026
sg20
V26.168
p1027
sg22
V-80.2543
p1028
sg11
S'Friday, 11. May 2012 11:27AM'
p1029
sg24
L3252L
ssL3253L
(dp1030
g3
VThe Villages
p1031
sg5
V4262
p1032
sg7
VWalmart
p1033
sg13
V(352) 259-0128
p1034
sg30
V4085 Wedgewood Ln
p1035
sg9
V32162
p1036
sg33
VIn stock
p1037
sg35
VThe Villages
p1038
sg15
VFL
p1039
sg17
I3
sg18
V4085 Wedgewood Ln
p1040
sg20
V28.929
p1041
sg22
V-82.0373
p1042
sg11
S'Friday, 11. May 2012 11:27AM'
p1043
sg24
L3253L
ssL182L
(dp1044
g3
VWinter Haven
p1045
sg5
V3347
p1046
sg7
VWalmart
p1047
sg13
V(863) 318-0752
p1048
sg30
V7450 Cypress Gardens Blvd
p1049
sg9
V33884
p1050
sg33
VIn stock
p1051
sg35
VWinter Haven
p1052
sg15
VFL
p1053
sg17
I3
sg18
V7450 Cypress Gardens Blvd
p1054
sg20
V27.9772
p1055
sg22
V-81.6409
p1056
sg11
S'Friday, 11. May 2012 11:27AM'
p1057
sg24
L182L
ssL722L
(dp1058
g3
VOrlando
p1059
sg5
V908
p1060
sg7
VWalmart
p1061
sg13
V(407) 354-5665
p1062
sg30
V8101 S John Young Pkwy
p1063
sg9
V32819
p1064
sg33
VLimited stock
p1065
sg35
VOrlando
p1066
sg15
VFL
p1067
sg17
I2
sg18
V8101 S John Young Pkwy
p1068
sg20
V28.4482
p1069
sg22
V-81.4236
p1070
sg11
S'Friday, 11. May 2012 11:27AM'
p1071
sg24
L722L
ssL176L
(dp1072
g3
VPort Charlotte
p1073
sg5
V3349
p1074
sg7
VWalmart
p1075
sg13
V(941) 625-1201
p1076
sg30
V375 Kings Hwy
p1077
sg9
V33983
p1078
sg33
VIn stock
p1079
sg35
VPort Charlotte
p1080
sg15
VFL
p1081
sg17
I3
sg18
V375 Kings Hwy
p1082
sg20
V27.0239
p1083
sg22
V-82.0458
p1084
sg11
S'Friday, 11. May 2012 11:27AM'
p1085
sg24
L176L
ssL2234L
(dp1086
g3
VPembroke Pines
p1087
sg5
V2591
p1088
sg7
VWalmart
p1089
sg13
V(954) 442-5822
p1090
sg30
V151 Sw 184Th Ave
p1091
sg9
V33029
p1092
sg33
VIn stock
p1093
sg35
VPembroke Pines
p1094
sg15
VFL
p1095
sg17
I3
sg18
V151 Sw 184Th Ave
p1096
sg20
V26.0078
p1097
sg22
V-80.3882
p1098
sg11
S'Friday, 11. May 2012 11:27AM'
p1099
sg24
L2234L
ssL2237L
(dp1100
g3
VTampa
p1101
sg5
V5036
p1102
sg7
VWalmart
p1103
sg13
V(813) 968-6477
p1104
sg30
V6192 Gunn Hwy
p1105
sg9
V33625
p1106
sg33
VLimited stock
p1107
sg35
VTampa
p1108
sg15
VFL
p1109
sg17
I2
sg18
V6192 Gunn Hwy
p1110
sg20
V28.0633
p1111
sg22
V-82.5499
p1112
sg11
S'Friday, 11. May 2012 11:27AM'
p1113
sg24
L2237L
ssL2238L
(dp1114
g3
VYulee
p1115
sg5
V5037
p1116
sg7
VWalmart
p1117
sg13
V(904) 261-9410
p1118
sg30
V464016 State Road  200
p1119
sg9
V32097
p1120
sg33
VLimited stock
p1121
sg35
VYulee
p1122
sg15
VFL
p1123
sg17
I2
sg18
V464016 State Road  200
p1124
sg20
V30.624
p1125
sg22
V-81.5443
p1126
sg11
S'Friday, 11. May 2012 11:27AM'
p1127
sg24
L2238L
ssL2240L
(dp1128
g3
VMulberry
p1129
sg5
V5035
p1130
sg7
VWalmart
p1131
sg13
V(863) 701-2232
p1132
sg30
V6745 N Church Ave
p1133
sg9
V33860
p1134
sg33
VLimited stock
p1135
sg35
VMulberry
p1136
sg15
VFL
p1137
sg17
I2
sg18
V6745 N Church Ave
p1138
sg20
V27.9344
p1139
sg22
V-81.974
p1140
sg11
S'Friday, 11. May 2012 11:27AM'
p1141
sg24
L2240L
ssL3104L
(dp1142
g3
VPinellas Park
p1143
sg5
V4669
p1144
sg7
VWalmart
p1145
sg9
V33781
p1146
sg11
S'Friday, 11. May 2012 11:27AM'
p1147
sg13
V(727) 527-2063
p1148
sg15
VFL
p1149
sg17
Nsg18
V6900 Us Highway 19 N
p1150
sg20
V27.8345
p1151
sg22
V-82.6816
p1152
sg24
L3104L
ssL1995L
(dp1153
g3
VTallahassee
p1154
sg5
V4427
p1155
sg7
VWalmart
p1156
sg13
V(850) 562-8383
p1157
sg30
V3221 N Monroe St
p1158
sg9
V32303
p1159
sg33
VIn stock
p1160
sg35
VTallahassee
p1161
sg15
VFL
p1162
sg17
I3
sg18
V3221 N Monroe St
p1163
sg20
V30.4889
p1164
sg22
V-84.3184
p1165
sg11
S'Friday, 11. May 2012 11:27AM'
p1166
sg24
L1995L
ssL1222L
(dp1167
g3
VNaples
p1168
sg5
V1957
p1169
sg7
VWalmart
p1170
sg13
V(239) 591-4311
p1171
sg30
V11225 Tamiami Trl N
p1172
sg9
V34110
p1173
sg33
VIn stock
p1174
sg35
VNaples
p1175
sg15
VFL
p1176
sg17
I3
sg18
V11225 Tamiami Trl N
p1177
sg20
V26.2745
p1178
sg22
V-81.8033
p1179
sg11
S'Friday, 11. May 2012 11:27AM'
p1180
sg24
L1222L
ssL2247L
(dp1181
g3
VEnglewood
p1182
sg5
V1874
p1183
sg7
VWalmart
p1184
sg13
V(941) 475-9220
p1185
sg30
V2931 S Mccall Rd
p1186
sg9
V34224
p1187
sg33
VLimited stock
p1188
sg35
VEnglewood
p1189
sg15
VFL
p1190
sg17
I2
sg18
V2931 S Mccall Rd
p1191
sg20
V26.9337
p1192
sg22
V-82.3087
p1193
sg11
S'Friday, 11. May 2012 11:27AM'
p1194
sg24
L2247L
ssL200L
(dp1195
g3
VJacksonville
p1196
sg5
V1172
p1197
sg7
VWalmart
p1198
sg13
V(904) 223-0772
p1199
sg30
V13490 Beach Blvd
p1200
sg9
V32224
p1201
sg33
VIn stock
p1202
sg35
VJacksonville
p1203
sg15
VFL
p1204
sg17
I3
sg18
V13490 Beach Blvd
p1205
sg20
V30.2847
p1206
sg22
V-81.4626
p1207
sg11
S'Friday, 11. May 2012 11:27AM'
p1208
sg24
L200L
ssL201L
(dp1209
g3
VSarasota
p1210
sg5
V1171
p1211
sg7
VWalmart
p1212
sg13
V(941) 351-6969
p1213
sg30
V8320 Lockwood Ridge Rd
p1214
sg9
V34243
p1215
sg33
VIn stock
p1216
sg35
VSarasota
p1217
sg15
VFL
p1218
sg17
I3
sg18
V8320 Lockwood Ridge Rd
p1219
sg20
V27.3893
p1220
sg22
V-82.5047
p1221
sg11
S'Friday, 11. May 2012 11:27AM'
p1222
sg24
L201L
ssL715L
(dp1223
g3
VPensacola
p1224
sg5
V1605
p1225
sg7
VWalmart
p1226
sg13
V(850) 455-4320
p1227
sg30
V4600 Mobile Hwy Ste 122
p1228
sg9
V32506
p1229
sg33
VIn stock
p1230
sg35
VPensacola
p1231
sg15
VFL
p1232
sg17
I3
sg18
V4600 Mobile Hwy Ste 122
p1233
sg20
V30.4385
p1234
sg22
V-87.2771
p1235
sg11
S'Friday, 11. May 2012 11:27AM'
p1236
sg24
L715L
ssL1232L
(dp1237
g3
VPalmetto
p1238
sg5
V3370
p1239
sg7
VWalmart
p1240
sg13
V(941) 723-2199
p1241
sg30
V508 10Th St E
p1242
sg9
V34221
p1243
sg33
VIn stock
p1244
sg35
VPalmetto
p1245
sg15
VFL
p1246
sg17
I3
sg18
V508 10Th St E
p1247
sg20
V27.5218
p1248
sg22
V-82.5607
p1249
sg11
S'Friday, 11. May 2012 11:27AM'
p1250
sg24
L1232L
ssL3281L
(dp1251
g3
VLake City
p1252
sg5
V767
p1253
sg7
VWalmart
p1254
sg13
V(386) 755-2427
p1255
sg30
V2767 W Us Highway 90
p1256
sg9
V32055
p1257
sg33
VIn stock
p1258
sg35
VLake City
p1259
sg15
VFL
p1260
sg17
I3
sg18
V2767 W Us Highway 90
p1261
sg20
V30.1799
p1262
sg22
V-82.6781
p1263
sg11
S'Friday, 11. May 2012 11:27AM'
p1264
sg24
L3281L
ssL2770L
(dp1265
g3
VLutz
p1266
sg5
V988
p1267
sg7
VWalmart
p1268
sg13
V(813) 949-4238
p1269
sg30
V1575 Land O Lakes Blvd
p1270
sg9
V33549
p1271
sg33
VIn stock
p1272
sg35
VLutz
p1273
sg15
VFL
p1274
sg17
I3
sg18
V1575 Land O Lakes Blvd
p1275
sg20
V28.1829
p1276
sg22
V-82.4671
p1277
sg11
S'Friday, 11. May 2012 11:27AM'
p1278
sg24
L2770L
ssL3795L
(dp1279
g3
VCrawfordville
p1280
sg5
V3307
p1281
sg7
VWalmart
p1282
sg13
V(850) 926-1560
p1283
sg30
V35 Mike Stewart
p1284
sg9
V32327
p1285
sg33
VLimited stock
p1286
sg35
VCrawfordville
p1287
sg15
VFL
p1288
sg17
I2
sg18
V35 Mike Stewart
p1289
sg20
V30.2169
p1290
sg22
V-84.361
p1291
sg11
S'Friday, 11. May 2012 11:27AM'
p1292
sg24
L3795L
ssL724L
(dp1293
g3
VLeesburg
p1294
sg5
V800
p1295
sg7
VWalmart
p1296
sg13
V(352) 326-3900
p1297
sg30
V2501 Citrus Blvd
p1298
sg9
V34748
p1299
sg33
VLimited stock
p1300
sg35
VLeesburg
p1301
sg15
VFL
p1302
sg17
I2
sg18
V2501 Citrus Blvd
p1303
sg20
V28.8425
p1304
sg22
V-81.899
p1305
sg11
S'Friday, 11. May 2012 11:27AM'
p1306
sg24
L724L
ssL2261L
(dp1307
g3
VWest Melbourne
p1308
sg5
V974
p1309
sg7
VWalmart
p1310
sg13
V(321) 984-2715
p1311
sg30
V845 Palm Bay Rd Ne
p1312
sg9
V32904
p1313
sg33
VIn stock
p1314
sg35
VWest Melbourne
p1315
sg15
VFL
p1316
sg17
I3
sg18
V845 Palm Bay Rd Ne
p1317
sg20
V28.0361
p1318
sg22
V-80.6483
p1319
sg11
S'Friday, 11. May 2012 11:27AM'
p1320
sg24
L2261L
ssL2262L
(dp1321
g3
VFort Pierce
p1322
sg5
V973
p1323
sg7
VWalmart
p1324
sg13
V(772) 468-0880
p1325
sg30
V5100 Okeechobee Rd
p1326
sg9
V34947
p1327
sg33
VIn stock
p1328
sg35
VFort Pierce
p1329
sg15
VFL
p1330
sg17
I3
sg18
V5100 Okeechobee Rd
p1331
sg20
V27.4188
p1332
sg22
V-80.3787
p1333
sg11
S'Friday, 11. May 2012 11:27AM'
p1334
sg24
L2262L
ssL3287L
(dp1335
g3
VOviedo
p1336
sg5
V5894
p1337
sg7
VWalmart
p1338
sg9
V32765
p1339
sg11
S'Friday, 11. May 2012 11:27AM'
p1340
sg13
V(407) 618-5013
p1341
sg15
VFL
p1342
sg17
Nsg18
V5511 Deep Lake Rd
p1343
sg20
V28.6179
p1344
sg22
V-81.2601
p1345
sg24
L3287L
ssL3291L
(dp1346
g3
VAvon Park
p1347
sg5
V3887
p1348
sg7
VWalmart
p1349
sg13
V(863) 453-4177
p1350
sg30
V1041 Us Highway 27 N
p1351
sg9
V33825
p1352
sg33
VLimited stock
p1353
sg35
VAvon Park
p1354
sg15
VFL
p1355
sg17
I2
sg18
V1041 Us Highway 27 N
p1356
sg20
V27.6171
p1357
sg22
V-81.5146
p1358
sg11
S'Friday, 11. May 2012 11:27AM'
p1359
sg24
L3291L
ssL735L
(dp1360
g3
VSummerfield
p1361
sg5
V2843
p1362
sg7
VWalmart
p1363
sg13
V(352) 307-4400
p1364
sg30
V17961 S Us Highway 441
p1365
sg9
V34491
p1366
sg33
VIn stock
p1367
sg35
VSummerfield
p1368
sg15
VFL
p1369
sg17
I3
sg18
V17961 S Us Highway 441
p1370
sg20
V28.9608
p1371
sg22
V-81.9645
p1372
sg11
S'Friday, 11. May 2012 11:27AM'
p1373
sg24
L735L
ssL1147L
(dp1374
g3
VGulf Breeze
p1375
sg5
V2533
p1376
sg7
VWalmart
p1377
sg13
V(850) 934-0362
p1378
sg30
V3767 Gulf Breeze Pkwy
p1379
sg9
V32563
p1380
sg33
VIn stock
p1381
sg35
VGulf Breeze
p1382
sg15
VFL
p1383
sg17
I3
sg18
V3767 Gulf Breeze Pkwy
p1384
sg20
V30.39
p1385
sg22
V-87.0634
p1386
sg11
S'Friday, 11. May 2012 11:27AM'
p1387
sg24
L1147L
ssL3451L
(dp1388
g3
VOcala
p1389
sg5
V5326
p1390
sg7
VWalmart
p1391
sg13
V(352) 291-7512
p1392
sg30
V9570 Sw Highway 200
p1393
sg9
V34481
p1394
sg33
VIn stock
p1395
sg35
VOcala
p1396
sg15
VFL
p1397
sg17
I3
sg18
V9570 Sw Highway 200
p1398
sg20
V29.0542
p1399
sg22
V-82.2815
p1400
sg11
S'Friday, 11. May 2012 11:27AM'
p1401
sg24
L3451L
ssL3302L
(dp1402
g3
VHialeah
p1403
sg5
V2814
p1404
sg7
VWalmart
p1405
sg13
V(305) 819-0672
p1406
sg30
V9300 Nw 77Th Ave
p1407
sg9
V33016
p1408
sg33
VIn stock
p1409
sg35
VHialeah
p1410
sg15
VFL
p1411
sg17
I3
sg18
V9300 Nw 77Th Ave
p1412
sg20
V25.8585
p1413
sg22
V-80.3255
p1414
sg11
S'Friday, 11. May 2012 11:27AM'
p1415
sg24
L3302L
ssL1745L
(dp1416
g3
VFort Walton Beach
p1417
sg5
V919
p1418
sg7
VWalmart
p1419
sg13
V(850) 862-0700
p1420
sg30
V748 Beal Pkwy Nw
p1421
sg9
V32547
p1422
sg33
VIn stock
p1423
sg35
VFort Walton Beach
p1424
sg15
VFL
p1425
sg17
I3
sg18
V748 Beal Pkwy Nw
p1426
sg20
V30.4409
p1427
sg22
V-86.6415
p1428
sg11
S'Friday, 11. May 2012 11:27AM'
p1429
sg24
L1745L
ssL2280L
(dp1430
g3
VChipley
p1431
sg5
V2114
p1432
sg7
VWalmart
p1433
sg13
V(850) 638-2243
p1434
sg30
V1621 Main St
p1435
sg9
V32428
p1436
sg33
VLimited stock
p1437
sg35
VChipley
p1438
sg15
VFL
p1439
sg17
I2
sg18
V1621 Main St
p1440
sg20
V30.7529
p1441
sg22
V-85.5497
p1442
sg11
S'Friday, 11. May 2012 11:27AM'
p1443
sg24
L2280L
ssL2795L
(dp1444
g3
VMelbourne
p1445
sg5
V5366
p1446
sg7
VWalmart
p1447
sg9
V32901
p1448
sg11
S'Friday, 11. May 2012 11:27AM'
p1449
sg13
V(321) 723-8988
p1450
sg15
VFL
p1451
sg17
Nsg18
V3550 S Babcock St
p1452
sg20
V28.0563
p1453
sg22
V-80.6224
p1454
sg24
L2795L
ssL2258L
(dp1455
g3
VFernandina Beach
p1456
sg5
V977
p1457
sg7
VWalmart
p1458
sg9
V32034
p1459
sg11
S'Friday, 11. May 2012 11:27AM'
p1460
sg13
V(904) 261-5306
p1461
sg15
VFL
p1462
sg17
Nsg18
V1385 Amelia Plz
p1463
sg20
V30.6475
p1464
sg22
V-81.4563
p1465
sg24
L2258L
ssL2286L
(dp1466
g3
VLive Oak
p1467
sg5
V2626
p1468
sg7
VWalmart
p1469
sg13
V(386) 330-2488
p1470
sg30
V6868 Us Highway 129
p1471
sg9
V32060
p1472
sg33
VLimited stock
p1473
sg35
VLive Oak
p1474
sg15
VFL
p1475
sg17
I2
sg18
V6868 Us Highway 129
p1476
sg20
V30.3243
p1477
sg22
V-82.965
p1478
sg11
S'Friday, 11. May 2012 11:27AM'
p1479
sg24
L2286L
ssL2287L
(dp1480
g3
VTampa
p1481
sg5
V2627
p1482
sg7
VWalmart
p1483
sg13
V(813) 558-0994
p1484
sg30
V2701 E Fletcher Ave
p1485
sg9
V33612
p1486
sg33
VLimited stock
p1487
sg35
VTampa
p1488
sg15
VFL
p1489
sg17
I2
sg18
V2701 E Fletcher Ave
p1490
sg20
V28.068
p1491
sg22
V-82.4285
p1492
sg11
S'Friday, 11. May 2012 11:27AM'
p1493
sg24
L2287L
ssL240L
(dp1494
g3
VNorth Fort Myers
p1495
sg5
V623
p1496
sg7
VWalmart
p1497
sg13
V(239) 997-9991
p1498
sg30
V545 Pine Island Rd
p1499
sg9
V33903
p1500
sg33
VLimited stock
p1501
sg35
VNorth Fort Myers
p1502
sg15
VFL
p1503
sg17
I2
sg18
V545 Pine Island Rd
p1504
sg20
V26.6818
p1505
sg22
V-81.9019
p1506
sg11
S'Friday, 11. May 2012 11:27AM'
p1507
sg24
L240L
ssL3319L
(dp1508
g3
VLauderdale Lakes
p1509
sg5
V3625
p1510
sg7
VWalmart
p1511
sg13
V(954) 733-7473
p1512
sg30
V3001 North State Road #7
p1513
sg9
V33313
p1514
sg33
VLimited stock
p1515
sg35
VLauderdale Lakes
p1516
sg15
VFL
p1517
sg17
I2
sg18
V3001 North State Road #7
p1518
sg20
V26.163
p1519
sg22
V-80.2055
p1520
sg11
S'Friday, 11. May 2012 11:27AM'
p1521
sg24
L3319L
ssL248L
(dp1522
g3
VTallahassee
p1523
sg5
V1223
p1524
sg7
VWalmart
p1525
sg13
V(850) 668-2511
p1526
sg30
V5500 Thomasville Rd
p1527
sg9
V32312
p1528
sg33
VLimited stock
p1529
sg35
VTallahassee
p1530
sg15
VFL
p1531
sg17
I2
sg18
V5500 Thomasville Rd
p1532
sg20
V30.5425
p1533
sg22
V-84.2283
p1534
sg11
S'Friday, 11. May 2012 11:27AM'
p1535
sg24
L248L
ssL3111L
(dp1536
g3
VOcoee
p1537
sg5
V942
p1538
sg7
VWalmart
p1539
sg13
V(407) 877-6900
p1540
sg30
V10500 W Colonial Dr
p1541
sg9
V34761
p1542
sg33
VLimited stock
p1543
sg35
VOcoee
p1544
sg15
VFL
p1545
sg17
I2
sg18
V10500 W Colonial Dr
p1546
sg20
V28.5502
p1547
sg22
V-81.5328
p1548
sg11
S'Friday, 11. May 2012 11:27AM'
p1549
sg24
L3111L
ssL3455L
(dp1550
g3
VFort Myers
p1551
sg5
V5321
p1552
sg7
VWalmart
p1553
sg9
V33919
p1554
sg11
S'Friday, 11. May 2012 11:27AM'
p1555
sg13
V(239) 267-2860
p1556
sg15
VFL
p1557
sg17
Nsg18
V9131 College Pkwy Ste 101
p1558
sg20
V26.5551
p1559
sg22
V-81.9063
p1560
sg24
L3455L
ssL2301L
(dp1561
g3
VOviedo
p1562
sg5
V5106
p1563
sg7
VWalmart
p1564
sg9
V32765
p1565
sg11
S'Friday, 11. May 2012 11:27AM'
p1566
sg13
V(407) 359-6707
p1567
sg15
VFL
p1568
sg17
Nsg18
V4255 Alafaya Trl
p1569
sg20
V28.6134
p1570
sg22
V-81.21
p1571
sg24
L2301L
ssL3839L
(dp1572
g3
VTampa
p1573
sg5
V5255
p1574
sg7
VWalmart
p1575
sg9
V33615
p1576
sg11
S'Friday, 11. May 2012 11:27AM'
p1577
sg13
V(813) 249-3145
p1578
sg15
VFL
p1579
sg17
Nsg18
V6216 Elliot Dr
p1580
sg20
V28.0045
p1581
sg22
V-82.5992
p1582
sg24
L3839L
ssL257L
(dp1583
g3
VCoral Springs
p1584
sg5
V4380
p1585
sg7
VWalmart
p1586
sg9
V33071
p1587
sg11
S'Friday, 11. May 2012 11:27AM'
p1588
sg13
V(954) 345-9513
p1589
sg15
VFL
p1590
sg17
Nsg18
V10635 W Atlantic Blvd
p1591
sg20
V26.2415
p1592
sg22
V-80.2674
p1593
sg24
L257L
ssL259L
(dp1594
g3
VRiverview
p1595
sg5
V5622
p1596
sg7
VWalmart
p1597
sg9
V33578
p1598
sg11
S'Friday, 11. May 2012 11:27AM'
p1599
sg13
V(813) 261-3596
p1600
sg15
VFL
p1601
sg17
Nsg18
V10863 Bloomingdale Ave
p1602
sg20
V27.8935
p1603
sg22
V-82.3187
p1604
sg24
L259L
ssL2309L
(dp1605
g3
VDeland
p1606
sg5
V860
p1607
sg7
VWalmart
p1608
sg13
V(386) 734-4420
p1609
sg30
V1699 N Woodland Blvd
p1610
sg9
V32720
p1611
sg33
VIn stock
p1612
sg35
VDeland
p1613
sg15
VFL
p1614
sg17
I3
sg18
V1699 N Woodland Blvd
p1615
sg20
V29.0611
p1616
sg22
V-81.3029
p1617
sg11
S'Friday, 11. May 2012 11:27AM'
p1618
sg24
L2309L
ssL3846L
(dp1619
g3
VDestin
p1620
sg5
V1362
p1621
sg7
VWalmart
p1622
sg13
V(850) 650-0341
p1623
sg30
V15017 Emerald Coast Pkwy
p1624
sg9
V32541
p1625
sg33
VLimited stock
p1626
sg35
VDestin
p1627
sg15
VFL
p1628
sg17
I2
sg18
V15017 Emerald Coast Pkwy
p1629
sg20
V30.3896
p1630
sg22
V-86.4497
p1631
sg11
S'Friday, 11. May 2012 11:27AM'
p1632
sg24
L3846L
ssL265L
(dp1633
g3
VMarianna
p1634
sg5
V1375
p1635
sg7
VWalmart
p1636
sg13
V(850) 526-5744
p1637
sg30
V2255 Highway 71
p1638
sg9
V32448
p1639
sg33
VIn stock
p1640
sg35
VMarianna
p1641
sg15
VFL
p1642
sg17
I3
sg18
V2255 Highway 71
p1643
sg20
V30.7272
p1644
sg22
V-85.1906
p1645
sg11
S'Friday, 11. May 2012 11:27AM'
p1646
sg24
L265L
ssL3338L
(dp1647
g3
VHialeah
p1648
sg5
V1590
p1649
sg7
VWalmart
p1650
sg13
V(305) 558-6069
p1651
sg30
V5851 Nw 177Th St
p1652
sg9
V33015
p1653
sg33
VIn stock
p1654
sg35
VHialeah
p1655
sg15
VFL
p1656
sg17
I3
sg18
V5851 Nw 177Th St
p1657
sg20
V25.9355
p1658
sg22
V-80.2958
p1659
sg11
S'Friday, 11. May 2012 11:27AM'
p1660
sg24
L3338L
ssL2830L
(dp1661
g3
VBushnell
p1662
sg5
V959
p1663
sg7
VWalmart
p1664
sg13
V(352) 793-1300
p1665
sg30
V2163 W C 48
p1666
sg9
V33513
p1667
sg33
VLimited stock
p1668
sg35
VBushnell
p1669
sg15
VFL
p1670
sg17
I2
sg18
V2163 W C 48
p1671
sg20
V28.6676
p1672
sg22
V-82.1416
p1673
sg11
S'Friday, 11. May 2012 11:27AM'
p1674
sg24
L2830L
ssL2831L
(dp1675
g3
VSt Petersburg
p1676
sg5
V4690
p1677
sg7
VWalmart
p1678
sg9
V33713
p1679
sg11
S'Friday, 11. May 2012 11:27AM'
p1680
sg13
V(727) 803-4961
p1681
sg15
VFL
p1682
sg17
Nsg18
V201 34Th St N
p1683
sg20
V27.7728
p1684
sg22
V-82.6778
p1685
sg24
L2831L
ssL1297L
(dp1686
g3
VDe Funiak Springs
p1687
sg5
V1134
p1688
sg7
VWalmart
p1689
sg13
V(850) 892-3138
p1690
sg30
V1226 Freeport Road
p1691
sg9
V32433
p1692
sg33
VIn stock
p1693
sg35
VDe Funiak Springs
p1694
sg15
VFL
p1695
sg17
I3
sg18
V1226 Freeport Road
p1696
sg20
V30.7046
p1697
sg22
V-86.1251
p1698
sg11
S'Friday, 11. May 2012 11:27AM'
p1699
sg24
L1297L
ssL2773L
(dp1700
g3
VHialeah
p1701
sg5
V5945
p1702
sg7
VWalmart
p1703
sg9
V33012
p1704
sg11
S'Friday, 11. May 2012 11:27AM'
p1705
sg13
V(305) 507-2044
p1706
sg15
VFL
p1707
sg17
Nsg18
V400 W 49Th St
p1708
sg20
V25.866
p1709
sg22
V-80.2917
p1710
sg24
L2773L
ssL3374L
(dp1711
g3
VMilton
p1712
sg5
V990
p1713
sg7
VWalmart
p1714
sg13
V(850) 995-0542
p1715
sg30
V4965 Highway 90
p1716
sg9
V32571
p1717
sg33
VLimited stock
p1718
sg35
VMilton
p1719
sg15
VFL
p1720
sg17
I2
sg18
V4965 Highway 90
p1721
sg20
V30.6021
p1722
sg22
V-87.1163
p1723
sg11
S'Friday, 11. May 2012 11:27AM'
p1724
sg24
L3374L
ssL3453L
(dp1725
g3
VMargate
p1726
sg5
V5325
p1727
sg7
VWalmart
p1728
sg13
V(954) 975-8682
p1729
sg30
V5555 W Atlantic Blvd
p1730
sg9
V33063
p1731
sg33
VIn stock
p1732
sg35
VMargate
p1733
sg15
VFL
p1734
sg17
I3
sg18
V5555 W Atlantic Blvd
p1735
sg20
V26.2373
p1736
sg22
V-80.2029
p1737
sg11
S'Friday, 11. May 2012 11:27AM'
p1738
sg24
L3453L
ssL3353L
(dp1739
g3
VChiefland
p1740
sg5
V1297
p1741
sg7
VWalmart
p1742
sg13
V(352) 493-0758
p1743
sg30
V2201 N Young Blvd
p1744
sg9
V32626
p1745
sg33
VIn stock
p1746
sg35
VChiefland
p1747
sg15
VFL
p1748
sg17
I3
sg18
V2201 N Young Blvd
p1749
sg20
V29.5023
p1750
sg22
V-82.8701
p1751
sg11
S'Friday, 11. May 2012 11:27AM'
p1752
sg24
L3353L
ssL3354L
(dp1753
g3
VClewiston
p1754
sg5
V2484
p1755
sg7
VWalmart
p1756
sg13
V(863) 983-4844
p1757
sg30
V1005 W Sugarland Hwy
p1758
sg9
V33440
p1759
sg33
VIn stock
p1760
sg35
VClewiston
p1761
sg15
VFL
p1762
sg17
I3
sg18
V1005 W Sugarland Hwy
p1763
sg20
V26.7537
p1764
sg22
V-80.9511
p1765
sg11
S'Friday, 11. May 2012 11:27AM'
p1766
sg24
L3354L
ssL1820L
(dp1767
g3
VWauchula
p1768
sg5
V759
p1769
sg7
VWalmart
p1770
sg13
V(863) 773-6419
p1771
sg30
V1480 Us Highway 17 N
p1772
sg9
V33873
p1773
sg33
VLimited stock
p1774
sg35
VWauchula
p1775
sg15
VFL
p1776
sg17
I2
sg18
V1480 Us Highway 17 N
p1777
sg20
V27.5729
p1778
sg22
V-81.8137
p1779
sg11
S'Friday, 11. May 2012 11:27AM'
p1780
sg24
L1820L
ssL2845L
(dp1781
g3
VIndian Harbour Beac
p1782
sg5
V956
p1783
sg7
VWalmart
p1784
sg13
V(321) 777-5504
p1785
sg30
V1001 E Eau Gallie Blvd
p1786
sg9
V32937
p1787
sg33
VLimited stock
p1788
sg35
VIndian Harbour Beac
p1789
sg15
VFL
p1790
sg17
I2
sg18
V1001 E Eau Gallie Blvd
p1791
sg20
V28.1368
p1792
sg22
V-80.5818
p1793
sg11
S'Friday, 11. May 2012 11:27AM'
p1794
sg24
L2845L
ssL800L
(dp1795
g3
VGainesville
p1796
sg5
V538
p1797
sg7
VWalmart
p1798
sg13
V(352) 378-0619
p1799
sg30
V2649 Nw 13Th St
p1800
sg9
V32609
p1801
sg33
VIn stock
p1802
sg35
VGainesville
p1803
sg15
VFL
p1804
sg17
I3
sg18
V2649 Nw 13Th St
p1805
sg20
V29.6772
p1806
sg22
V-82.3388
p1807
sg11
S'Friday, 11. May 2012 11:27AM'
p1808
sg24
L800L
ssL1314L
(dp1809
g3
VBradenton
p1810
sg5
V1004
p1811
sg7
VWalmart
p1812
sg13
V(941) 798-9341
p1813
sg30
V5315 Cortez Rd W
p1814
sg9
V34210
p1815
sg33
VLimited stock
p1816
sg35
VBradenton
p1817
sg15
VFL
p1818
sg17
I2
sg18
V5315 Cortez Rd W
p1819
sg20
V27.4622
p1820
sg22
V-82.6163
p1821
sg11
S'Friday, 11. May 2012 11:27AM'
p1822
sg24
L1314L
ssL219L
(dp1823
g3
VStarke
p1824
sg5
V1283
p1825
sg7
VWalmart
p1826
sg13
V(904) 964-3286
p1827
sg30
V14500 Us Highway 301 S
p1828
sg9
V32091
p1829
sg33
VLimited stock
p1830
sg35
VStarke
p1831
sg15
VFL
p1832
sg17
I2
sg18
V14500 Us Highway 301 S
p1833
sg20
V29.9194
p1834
sg22
V-82.1305
p1835
sg11
S'Friday, 11. May 2012 11:27AM'
p1836
sg24
L219L
ssL1256L
(dp1837
g3
VTampa
p1838
sg5
V1482
p1839
sg7
VWalmart
p1840
sg13
V(813) 881-0402
p1841
sg30
V7011 W Waters Ave
p1842
sg9
V33634
p1843
sg33
VOut of stock
p1844
sg35
VTampa
p1845
sg15
VFL
p1846
sg17
I0
sg18
V7011 W Waters Ave
p1847
sg20
V28.0269
p1848
sg22
V-82.5589
p1849
sg11
S'Friday, 11. May 2012 11:27AM'
p1850
sg24
L1256L
ssL3367L
(dp1851
g3
VOrlando
p1852
sg5
V5179
p1853
sg7
VWalmart
p1854
sg9
V32825
p1855
sg11
S'Friday, 11. May 2012 11:27AM'
p1856
sg13
V(407) 380-9971
p1857
sg15
VFL
p1858
sg17
Nsg18
V201 S Chickasaw Trl
p1859
sg20
V28.5398
p1860
sg22
V-81.2759
p1861
sg24
L3367L
ssL2344L
(dp1862
g3
VSt Petersburg
p1863
sg5
V5218
p1864
sg7
VWalmart
p1865
sg13
V(727) 906-4647
p1866
sg30
V3501 34Th St S
p1867
sg9
V33711
p1868
sg33
VLimited stock
p1869
sg35
VSt Petersburg
p1870
sg15
VFL
p1871
sg17
I2
sg18
V3501 34Th St S
p1872
sg20
V27.7337
p1873
sg22
V-82.6794
p1874
sg11
S'Friday, 11. May 2012 11:27AM'
p1875
sg24
L2344L
ssL1321L
(dp1876
g3
VOrange Park
p1877
sg5
V1225
p1878
sg7
VWalmart
p1879
sg13
V(904) 272-0036
p1880
sg30
V899 Blanding Blvd
p1881
sg9
V32065
p1882
sg33
VIn stock
p1883
sg35
VOrange Park
p1884
sg15
VFL
p1885
sg17
I3
sg18
V899 Blanding Blvd
p1886
sg20
V30.1378
p1887
sg22
V-81.7688
p1888
sg11
S'Friday, 11. May 2012 11:27AM'
p1889
sg24
L1321L
ssL1322L
(dp1890
g3
VPensacola
p1891
sg5
V1224
p1892
sg7
VWalmart
p1893
sg13
V(850) 479-2101
p1894
sg30
V2650 Creighton Rd
p1895
sg9
V32504
p1896
sg33
VIn stock
p1897
sg35
VPensacola
p1898
sg15
VFL
p1899
sg17
I3
sg18
V2650 Creighton Rd
p1900
sg20
V30.4965
p1901
sg22
V-87.1912
p1902
sg11
S'Friday, 11. May 2012 11:27AM'
p1903
sg24
L1322L
ssL3371L
(dp1904
g3
VNew Port Richey
p1905
sg5
V994
p1906
sg7
VWalmart
p1907
sg13
V(727) 376-3811
p1908
sg30
V8745 State Road 54
p1909
sg9
V34655
p1910
sg33
VLimited stock
p1911
sg35
VNew Port Richey
p1912
sg15
VFL
p1913
sg17
I2
sg18
V8745 State Road 54
p1914
sg20
V28.2057
p1915
sg22
V-82.6693
p1916
sg11
S'Friday, 11. May 2012 11:27AM'
p1917
sg24
L3371L
ssL1324L
(dp1918
g3
VPensacola
p1919
sg5
V1222
p1920
sg7
VWalmart
p1921
sg13
V(850) 484-3771
p1922
sg30
V8970 Pensacola Blvd
p1923
sg9
V32534
p1924
sg33
VOut of stock
p1925
sg35
VPensacola
p1926
sg15
VFL
p1927
sg17
I0
sg18
V8970 Pensacola Blvd
p1928
sg20
V30.5274
p1929
sg22
V-87.2716
p1930
sg11
S'Friday, 11. May 2012 11:27AM'
p1931
sg24
L1324L
ssL1326L
(dp1932
g3
VOrlando
p1933
sg5
V1220
p1934
sg7
VWalmart
p1935
sg13
V(407) 290-6977
p1936
sg30
V2500 S Kirkman Rd
p1937
sg9
V32811
p1938
sg33
VLimited stock
p1939
sg35
VOrlando
p1940
sg15
VFL
p1941
sg17
I2
sg18
V2500 S Kirkman Rd
p1942
sg20
V28.5168
p1943
sg22
V-81.4604
p1944
sg11
S'Friday, 11. May 2012 11:27AM'
p1945
sg24
L1326L
ssL2352L
(dp1946
g3
VMerritt Island
p1947
sg5
V771
p1948
sg7
VWalmart
p1949
sg13
V(321) 452-6058
p1950
sg30
V1500 E Merritt Island Cswy
p1951
sg9
V32952
p1952
sg33
VLimited stock
p1953
sg35
VMerritt Island
p1954
sg15
VFL
p1955
sg17
I2
sg18
V1500 E Merritt Island Cswy
p1956
sg20
V28.3564
p1957
sg22
V-80.6656
p1958
sg11
S'Friday, 11. May 2012 11:27AM'
p1959
sg24
L2352L
ssL817L
(dp1960
g3
VWinter Springs
p1961
sg5
V5132
p1962
sg7
VWalmart
p1963
sg9
V32708
p1964
sg11
S'Friday, 11. May 2012 11:27AM'
p1965
sg13
V(407) 699-7050
p1966
sg15
VFL
p1967
sg17
Nsg18
V5216 Red Bug Lake Rd
p1968
sg20
V28.6482
p1969
sg22
V-81.2783
p1970
sg24
L817L
ssL1405L
(dp1971
g3
VPembroke Pines
p1972
sg5
V5932
p1973
sg7
VWalmart
p1974
sg13
V(954) 378-1542
p1975
sg30
V12800 Pines Blvd
p1976
sg9
V33027
p1977
sg33
VIn stock
p1978
sg35
VPembroke Pines
p1979
sg15
VFL
p1980
sg17
I3
sg18
V12800 Pines Blvd
p1981
sg20
V26.0053
p1982
sg22
V-80.3183
p1983
sg11
S'Friday, 11. May 2012 11:27AM'
p1984
sg24
L1405L
ssL2356L
(dp1985
g3
VLakeland
p1986
sg5
V779
p1987
sg7
VWalmart
p1988
sg13
V(863) 644-5676
p1989
sg30
V3501 S Florida Ave
p1990
sg9
V33803
p1991
sg33
VLimited stock
p1992
sg35
VLakeland
p1993
sg15
VFL
p1994
sg17
I2
sg18
V3501 S Florida Ave
p1995
sg20
V27.9992
p1996
sg22
V-81.9571
p1997
sg11
S'Friday, 11. May 2012 11:27AM'
p1998
sg24
L2356L
ssL2357L
(dp1999
g3
VPunta Gorda
p2000
sg5
V778
p2001
sg7
VWalmart
p2002
sg13
V(941) 637-3800
p2003
sg30
V5001 Taylor Rd
p2004
sg9
V33950
p2005
sg33
VLimited stock
p2006
sg35
VPunta Gorda
p2007
sg15
VFL
p2008
sg17
I2
sg18
V5001 Taylor Rd
p2009
sg20
V26.8938
p2010
sg22
V-82.012
p2011
sg11
S'Friday, 11. May 2012 11:27AM'
p2012
sg24
L2357L
ssL822L
(dp2013
g3
VLake Worth
p2014
sg5
V1398
p2015
sg7
VWalmart
p2016
sg13
V(561) 642-6005
p2017
sg30
V4545 Hypoluxo Rd
p2018
sg9
V33463
p2019
sg33
VIn stock
p2020
sg35
VLake Worth
p2021
sg15
VFL
p2022
sg17
I3
sg18
V4545 Hypoluxo Rd
p2023
sg20
V26.5749
p2024
sg22
V-80.1143
p2025
sg11
S'Friday, 11. May 2012 11:27AM'
p2026
sg24
L822L
ssL1338L
(dp2027
g3
VKissimmee
p2028
sg5
V2881
p2029
sg7
VWalmart
p2030
sg13
V(407) 870-2277
p2031
sg30
V1471 E Osceola Pkwy
p2032
sg9
V34744
p2033
sg33
VIn stock
p2034
sg35
VKissimmee
p2035
sg15
VFL
p2036
sg17
I3
sg18
V1471 E Osceola Pkwy
p2037
sg20
V28.3436
p2038
sg22
V-81.3842
p2039
sg11
S'Friday, 11. May 2012 11:27AM'
p2040
sg24
L1338L
ssL315L
(dp2041
g3
VKissimmee
p2042
sg5
V5846
p2043
sg7
VWalmart
p2044
sg9
V34741
p2045
sg11
S'Friday, 11. May 2012 11:27AM'
p2046
sg13
V(407) 452-0224
p2047
sg15
VFL
p2048
sg17
Nsg18
V3183 W Vine St
p2049
sg20
V28.3066
p2050
sg22
V-81.4352
p2051
sg24
L315L
ssL316L
(dp2052
g3
VNiceville
p2053
sg5
V5845
p2054
sg7
VWalmart
p2055
sg13
V(850) 389-3013
p2056
sg30
V1300 John Sims Pkwy E
p2057
sg9
V32578
p2058
sg33
VLimited stock
p2059
sg35
VNiceville
p2060
sg15
VFL
p2061
sg17
I2
sg18
V1300 John Sims Pkwy E
p2062
sg20
V30.5171
p2063
sg22
V-86.4616
p2064
sg11
S'Friday, 11. May 2012 11:27AM'
p2065
sg24
L316L
ssL829L
(dp2066
g3
VDaytona Beach
p2067
sg5
V1391
p2068
sg7
VWalmart
p2069
sg13
V(386) 760-7880
p2070
sg30
V1101 Beville Rd
p2071
sg9
V32119
p2072
sg33
VIn stock
p2073
sg35
VDaytona Beach
p2074
sg15
VFL
p2075
sg17
I3
sg18
V1101 Beville Rd
p2076
sg20
V29.1735
p2077
sg22
V-81.03
p2078
sg11
S'Friday, 11. May 2012 11:27AM'
p2079
sg24
L829L
ssL830L
(dp2080
g3
VPinellas Park
p2081
sg5
V1390
p2082
sg7
VWalmart
p2083
sg13
V(727) 576-1770
p2084
sg30
V8001 Us Highway 19 N
p2085
sg9
V33781
p2086
sg33
VLimited stock
p2087
sg35
VPinellas Park
p2088
sg15
VFL
p2089
sg17
I2
sg18
V8001 Us Highway 19 N
p2090
sg20
V27.8458
p2091
sg22
V-82.6878
p2092
sg11
S'Friday, 11. May 2012 11:27AM'
p2093
sg24
L830L
ssL2101L
(dp2094
g3
VOrmond Beach
p2095
sg5
V613
p2096
sg7
VWalmart
p2097
sg13
V(386) 672-2104
p2098
sg30
V1521 W Granada Blvd
p2099
sg9
V32174
p2100
sg33
VIn stock
p2101
sg35
VOrmond Beach
p2102
sg15
VFL
p2103
sg17
I3
sg18
V1521 W Granada Blvd
p2104
sg20
V29.2608
p2105
sg22
V-81.1092
p2106
sg11
S'Friday, 11. May 2012 11:27AM'
p2107
sg24
L2101L
ssL480L
(dp2108
g3
VVenice
p2109
sg5
V769
p2110
sg7
VWalmart
p2111
sg13
V(941) 497-2523
p2112
sg30
V4150 Tamiami Trl S
p2113
sg9
V34293
p2114
sg33
VLimited stock
p2115
sg35
VVenice
p2116
sg15
VFL
p2117
sg17
I2
sg18
V4150 Tamiami Trl S
p2118
sg20
V27.0493
p2119
sg22
V-82.4049
p2120
sg11
S'Friday, 11. May 2012 11:27AM'
p2121
sg24
L480L
ssL2943L
(dp2122
g3
VJacksonville
p2123
sg5
V1082
p2124
sg7
VWalmart
p2125
sg13
V(904) 260-4402
p2126
sg30
V10991 San Jose Blvd Ste 1
p2127
sg9
V32223
p2128
sg33
VIn stock
p2129
sg35
VJacksonville
p2130
sg15
VFL
p2131
sg17
I3
sg18
V10991 San Jose Blvd Ste 1
p2132
sg20
V30.177
p2133
sg22
V-81.6277
p2134
sg11
S'Friday, 11. May 2012 11:27AM'
p2135
sg24
L2943L
ssL1886L
(dp2136
g3
VNaples
p2137
sg5
V1119
p2138
sg7
VWalmart
p2139
sg13
V(239) 793-5517
p2140
sg30
V3451 Tamiami Trl E
p2141
sg9
V34112
p2142
sg33
VLimited stock
p2143
sg35
VNaples
p2144
sg15
VFL
p2145
sg17
I2
sg18
V3451 Tamiami Trl E
p2146
sg20
V26.1252
p2147
sg22
V-81.7627
p2148
sg11
S'Friday, 11. May 2012 11:27AM'
p2149
sg24
L1886L
ssL3398L
(dp2150
g3
VKissimmee
p2151
sg5
V5250
p2152
sg7
VWalmart
p2153
sg13
V(407) 870-1903
p2154
sg30
V904 Cypress Pkwy
p2155
sg9
V34759
p2156
sg33
VIn stock
p2157
sg35
VKissimmee
p2158
sg15
VFL
p2159
sg17
I3
sg18
V904 Cypress Pkwy
p2160
sg20
V28.146
p2161
sg22
V-81.4427
p2162
sg11
S'Friday, 11. May 2012 11:27AM'
p2163
sg24
L3398L
ssL1864L
(dp2164
g3
VCallaway
p2165
sg5
V1207
p2166
sg7
VWalmart
p2167
sg13
V(850) 785-6011
p2168
sg30
V725 No. Tyndall Pkwy
p2169
sg9
V32404
p2170
sg33
VLimited stock
p2171
sg35
VCallaway
p2172
sg15
VFL
p2173
sg17
I2
sg18
V725 No. Tyndall Pkwy
p2174
sg20
V30.1594
p2175
sg22
V-85.591
p2176
sg11
S'Friday, 11. May 2012 11:27AM'
p2177
sg24
L1864L
ssL2379L
(dp2178
g3
VMelbourne
p2179
sg5
V5365
p2180
sg7
VWalmart
p2181
sg9
V32935
p2182
sg11
S'Friday, 11. May 2012 11:27AM'
p2183
sg13
V(321) 254-7875
p2184
sg15
VFL
p2185
sg17
Nsg18
V3950 N Wickham Rd
p2186
sg20
V28.1718
p2187
sg22
V-80.6722
p2188
sg24
L2379L
ssL1868L
(dp2189
g3
VWimauma
p2190
sg5
V1203
p2191
sg7
VWalmart
p2192
sg13
V(813) 633-1467
p2193
sg30
V4928 State Road 674
p2194
sg9
V33598
p2195
sg33
VIn stock
p2196
sg35
VWimauma
p2197
sg15
VFL
p2198
sg17
I3
sg18
V4928 State Road 674
p2199
sg20
V27.7169
p2200
sg22
V-82.3296
p2201
sg11
S'Friday, 11. May 2012 11:27AM'
p2202
sg24
L1868L
ssL1506L
(dp2203
g3
VBradenton
p2204
sg5
V3474
p2205
sg7
VWalmart
p2206
sg13
V(941) 708-2800
p2207
sg30
V6225 E State Road 64
p2208
sg9
V34208
p2209
sg33
VIn stock
p2210
sg35
VBradenton
p2211
sg15
VFL
p2212
sg17
I3
sg18
V6225 E State Road 64
p2213
sg20
V27.5001
p2214
sg22
V-82.4918
p2215
sg11
S'Friday, 11. May 2012 11:27AM'
p2216
sg24
L1506L
ssL2894L
(dp2217
g3
VJupiter
p2218
sg5
V2176
p2219
sg7
VWalmart
p2220
sg13
V(561) 746-6422
p2221
sg30
V2144 W Indiantown Rd
p2222
sg9
V33458
p2223
sg33
VIn stock
p2224
sg35
VJupiter
p2225
sg15
VFL
p2226
sg17
I3
sg18
V2144 W Indiantown Rd
p2227
sg20
V26.9326
p2228
sg22
V-80.1284
p2229
sg11
S'Friday, 11. May 2012 11:27AM'
p2230
sg24
L2894L
ssL2383L
(dp2231
g3
VKendall
p2232
sg5
V1680
p2233
sg7
VWalmart
p2234
sg13
V(305) 383-3611
p2235
sg30
V15885 Sw 88Th St
p2236
sg9
V33196
p2237
sg33
VLimited stock
p2238
sg35
VKendall
p2239
sg15
VFL
p2240
sg17
I2
sg18
V15885 Sw 88Th St
p2241
sg20
V25.6853
p2242
sg22
V-80.4485
p2243
sg11
S'Friday, 11. May 2012 11:27AM'
p2244
sg24
L2383L
ssL3410L
(dp2245
g3
VOldsmar
p2246
sg5
V2796
p2247
sg7
VWalmart
p2248
sg13
V(813) 854-3261
p2249
sg30
V3801 Tampa Rd
p2250
sg9
V34677
p2251
sg33
VIn stock
p2252
sg35
VOldsmar
p2253
sg15
VFL
p2254
sg17
I3
sg18
V3801 Tampa Rd
p2255
sg20
V28.0438
p2256
sg22
V-82.6758
p2257
sg11
S'Friday, 11. May 2012 11:27AM'
p2258
sg24
L3410L
ssL3415L
(dp2259
g3
VHomosassa
p2260
sg5
V1029
p2261
sg7
VWalmart
p2262
sg13
V(352) 628-4161
p2263
sg30
V3826 S Suncoast Blvd
p2264
sg9
V34448
p2265
sg33
VLimited stock
p2266
sg35
VHomosassa
p2267
sg15
VFL
p2268
sg17
I2
sg18
V3826 S Suncoast Blvd
p2269
sg20
V28.808
p2270
sg22
V-82.5772
p2271
sg11
S'Friday, 11. May 2012 11:27AM'
p2272
sg24
L3415L
ssL3416L
(dp2273
g3
VKissimmee
p2274
sg5
V5420
p2275
sg7
VWalmart
p2276
sg13
V(407) 397-1125
p2277
sg30
V3250 Vineland Rd
p2278
sg9
V34746
p2279
sg33
VIn stock
p2280
sg35
VKissimmee
p2281
sg15
VFL
p2282
sg17
I3
sg18
V3250 Vineland Rd
p2283
sg20
V28.3424
p2284
sg22
V-81.4852
p2285
sg11
S'Friday, 11. May 2012 11:27AM'
p2286
sg24
L3416L
ssL1881L
(dp2287
g3
VJacksonville
p2288
sg5
V1444
p2289
sg7
VWalmart
p2290
sg13
V(904) 721-4941
p2291
sg30
V9890 Hutchinson Park Dr
p2292
sg9
V32225
p2293
sg33
VIn stock
p2294
sg35
VJacksonville
p2295
sg15
VFL
p2296
sg17
I3
sg18
V9890 Hutchinson Park Dr
p2297
sg20
V30.3413
p2298
sg22
V-81.5441
p2299
sg11
S'Friday, 11. May 2012 11:27AM'
p2300
sg24
L1881L
ssL347L
(dp2301
g3
VSarasota
p2302
sg5
V2459
p2303
sg7
VWalmart
p2304
sg13
V(941) 379-3550
p2305
sg30
V4381 Cattlemen Rd
p2306
sg9
V34233
p2307
sg33
VIn stock
p2308
sg35
VSarasota
p2309
sg15
VFL
p2310
sg17
I3
sg18
V4381 Cattlemen Rd
p2311
sg20
V27.2905
p2312
sg22
V-82.4519
p2313
sg11
S'Friday, 11. May 2012 11:27AM'
p2314
sg24
L347L
ssL2909L
(dp2315
g3
VDade City
p2316
sg5
V713
p2317
sg7
VWalmart
p2318
sg9
V33525
p2319
sg11
S'Friday, 11. May 2012 11:27AM'
p2320
sg13
V(352) 567-1551
p2321
sg15
VFL
p2322
sg17
Nsg18
V12650 Us Highway 301
p2323
sg20
V28.342
p2324
sg22
V-82.1869
p2325
sg24
L2909L
ssL199L
(dp2326
g3
VJacksonville
p2327
sg5
V1173
p2328
sg7
VWalmart
p2329
sg13
V(904) 642-4999
p2330
sg30
V8808 Beach Blvd
p2331
sg9
V32216
p2332
sg33
VIn stock
p2333
sg35
VJacksonville
p2334
sg15
VFL
p2335
sg17
I3
sg18
V8808 Beach Blvd
p2336
sg20
V30.2836
p2337
sg22
V-81.5627
p2338
sg11
S'Friday, 11. May 2012 11:27AM'
p2339
sg24
L199L
ssL2400L
(dp2340
g3
VSebring
p2341
sg5
V666
p2342
sg7
VWalmart
p2343
sg13
V(863) 471-1200
p2344
sg30
V3525 Us Highway 27 N
p2345
sg9
V33870
p2346
sg33
VIn stock
p2347
sg35
VSebring
p2348
sg15
VFL
p2349
sg17
I3
sg18
V3525 Us Highway 27 N
p2350
sg20
V27.5129
p2351
sg22
V-81.497
p2352
sg11
S'Friday, 11. May 2012 11:27AM'
p2353
sg24
L2400L
ssL1205L
(dp2354
g3
VVero Beach
p2355
sg5
V931
p2356
sg7
VWalmart
p2357
sg13
V(772) 778-6677
p2358
sg30
V5555 20Th St
p2359
sg9
V32966
p2360
sg33
VIn stock
p2361
sg35
VVero Beach
p2362
sg15
VFL
p2363
sg17
I3
sg18
V5555 20Th St
p2364
sg20
V27.6367
p2365
sg22
V-80.4432
p2366
sg11
S'Friday, 11. May 2012 11:27AM'
p2367
sg24
L1205L
ssL2875L
(dp2368
g3
VOrlando
p2369
sg5
V4588
p2370
sg7
VWalmart
p2371
sg13
V(321) 354-2096
p2372
sg30
V3101 W Princeton St
p2373
sg9
V32808
p2374
sg33
VLimited stock
p2375
sg35
VOrlando
p2376
sg15
VFL
p2377
sg17
I2
sg18
V3101 W Princeton St
p2378
sg20
V28.5704
p2379
sg22
V-81.4167
p2380
sg11
S'Friday, 11. May 2012 11:27AM'
p2381
sg24
L2875L
ssL360L
(dp2382
g3
VCocoa
p2383
sg5
V174
p2384
sg7
VWalmart
p2385
sg13
V(321) 639-1610
p2386
sg30
V2700 Clearlake Rd
p2387
sg9
V32922
p2388
sg33
VLimited stock
p2389
sg35
VCocoa
p2390
sg15
VFL
p2391
sg17
I2
sg18
V2700 Clearlake Rd
p2392
sg20
V28.3948
p2393
sg22
V-80.7535
p2394
sg11
S'Friday, 11. May 2012 11:27AM'
p2395
sg24
L360L
ssL2921L
(dp2396
g3
VWest Palm Beach
p2397
sg5
V5301
p2398
sg7
VWalmart
p2399
sg13
V(561) 242-8889
p2400
sg30
V4375 Belvedere Rd
p2401
sg9
V33406
p2402
sg33
VIn stock
p2403
sg35
VWest Palm Beach
p2404
sg15
VFL
p2405
sg17
I3
sg18
V4375 Belvedere Rd
p2406
sg20
V26.6927
p2407
sg22
V-80.1101
p2408
sg11
S'Friday, 11. May 2012 11:27AM'
p2409
sg24
L2921L
ssL3441L
(dp2410
g3
VCoral Springs
p2411
sg5
V4498
p2412
sg7
VWalmart
p2413
sg9
V33067
p2414
sg11
S'Friday, 11. May 2012 11:27AM'
p2415
sg13
V(954) 753-7377
p2416
sg15
VFL
p2417
sg17
Nsg18
V4650 N University Dr
p2418
sg20
V26.2882
p2419
sg22
V-80.2524
p2420
sg24
L3441L
ssL147L
(dp2421
g3
VHallandale Beach
p2422
sg5
V1996
p2423
sg7
VWalmart
p2424
sg13
V(954) 455-4700
p2425
sg30
V2551 E Hallandale Beach Blvd
p2426
sg9
V33009
p2427
sg33
VIn stock
p2428
sg35
VHallandale Beach
p2429
sg15
VFL
p2430
sg17
I3
sg18
V2551 E Hallandale Beach Blvd
p2431
sg20
V25.9878
p2432
sg22
V-80.1239
p2433
sg11
S'Friday, 11. May 2012 11:27AM'
p2434
sg24
L147L
ssL2420L
(dp2435
g3
VCoconut Creek
p2436
sg5
V1916
p2437
sg7
VWalmart
p2438
sg13
V(954) 426-6101
p2439
sg30
V5571 W Hillsboro Blvd
p2440
sg9
V33073
p2441
sg33
VLimited stock
p2442
sg35
VCoconut Creek
p2443
sg15
VFL
p2444
sg17
I2
sg18
V5571 W Hillsboro Blvd
p2445
sg20
V26.3182
p2446
sg22
V-80.2022
p2447
sg11
S'Friday, 11. May 2012 11:27AM'
p2448
sg24
L2420L
ssL933L
(dp2449
g3
VOrlando
p2450
sg5
V3782
p2451
sg7
VWalmart
p2452
sg13
V(407) 382-8880
p2453
sg30
V5991 New Goldenrod Road
p2454
sg9
V32822
p2455
sg33
VIn stock
p2456
sg35
VOrlando
p2457
sg15
VFL
p2458
sg17
I3
sg18
V5991 New Goldenrod Road
p2459
sg20
V28.4773
p2460
sg22
V-81.288
p2461
sg11
S'Friday, 11. May 2012 11:27AM'
p2462
sg24
L933L
ssL378L
(dp2463
g3
VTampa
p2464
sg5
V1501
p2465
sg7
VWalmart
p2466
sg13
V(813) 968-3544
p2467
sg30
V14941 N Dale Mabry Hwy
p2468
sg9
V33618
p2469
sg33
VIn stock
p2470
sg35
VTampa
p2471
sg15
VFL
p2472
sg17
I3
sg18
V14941 N Dale Mabry Hwy
p2473
sg20
V28.0858
p2474
sg22
V-82.5027
p2475
sg11
S'Friday, 11. May 2012 11:27AM'
p2476
sg24
L378L
ssL2939L
(dp2477
g3
VSaint Cloud
p2478
sg5
V1086
p2479
sg7
VWalmart
p2480
sg13
V(407) 957-1300
p2481
sg30
V4400 13Th St
p2482
sg9
V34769
p2483
sg33
VIn stock
p2484
sg35
VSaint Cloud
p2485
sg15
VFL
p2486
sg17
I3
sg18
V4400 13Th St
p2487
sg20
V28.2527
p2488
sg22
V-81.3147
p2489
sg11
S'Friday, 11. May 2012 11:27AM'
p2490
sg24
L2939L
ssL2940L
(dp2491
g3
VPort Richey
p2492
sg5
V1085
p2493
sg7
VWalmart
p2494
sg13
V(727) 846-9504
p2495
sg30
V8701 Us Highway 19
p2496
sg9
V34668
p2497
sg33
VLimited stock
p2498
sg35
VPort Richey
p2499
sg15
VFL
p2500
sg17
I2
sg18
V8701 Us Highway 19
p2501
sg20
V28.2813
p2502
sg22
V-82.7186
p2503
sg11
S'Friday, 11. May 2012 11:27AM'
p2504
sg24
L2940L
ssL2941L
(dp2505
g3
VOrlando
p2506
sg5
V1084
p2507
sg7
VWalmart
p2508
sg13
V(407) 277-4314
p2509
sg30
V3838 S Semoran Blvd
p2510
sg9
V32822
p2511
sg33
VLimited stock
p2512
sg35
VOrlando
p2513
sg15
VFL
p2514
sg17
I2
sg18
V3838 S Semoran Blvd
p2515
sg20
V28.505
p2516
sg22
V-81.3128
p2517
sg11
S'Friday, 11. May 2012 11:27AM'
p2518
sg24
L2941L
ssL2942L
(dp2519
g3
VJacksonville
p2520
sg5
V1083
p2521
sg7
VWalmart
p2522
sg13
V(904) 786-0390
p2523
sg30
V6830 Normandy Blvd
p2524
sg9
V32205
p2525
sg33
VLimited stock
p2526
sg35
VJacksonville
p2527
sg15
VFL
p2528
sg17
I2
sg18
V6830 Normandy Blvd
p2529
sg20
V30.3047
p2530
sg22
V-81.7529
p2531
sg11
S'Friday, 11. May 2012 11:27AM'
p2532
sg24
L2942L
ssL1919L
(dp2533
g3
VBrandon
p2534
sg5
V5826
p2535
sg7
VWalmart
p2536
sg9
V33511
p2537
sg11
S'Friday, 11. May 2012 11:27AM'
p2538
sg13
V(813) 261-0267
p2539
sg15
VFL
p2540
sg17
Nsg18
V901 Lithia Pinecrest Rd
p2541
sg20
V27.9253
p2542
sg22
V-82.2702
p2543
sg24
L1919L
ssL2944L
(dp2544
g3
VGainesville
p2545
sg5
V1081
p2546
sg7
VWalmart
p2547
sg13
V(352) 371-3171
p2548
sg30
V3570 Sw Archer Rd
p2549
sg9
V32608
p2550
sg33
VIn stock
p2551
sg35
VGainesville
p2552
sg15
VFL
p2553
sg17
I3
sg18
V3570 Sw Archer Rd
p2554
sg20
V29.6261
p2555
sg22
V-82.3741
p2556
sg11
S'Friday, 11. May 2012 11:27AM'
p2557
sg24
L2944L
ssL385L
(dp2558
g3
VBrooksville
p2559
sg5
V3526
p2560
sg7
VWalmart
p2561
sg13
V(352) 796-5996
p2562
sg30
V7305 Broad St
p2563
sg9
V34601
p2564
sg33
VLimited stock
p2565
sg35
VBrooksville
p2566
sg15
VFL
p2567
sg17
I2
sg18
V7305 Broad St
p2568
sg20
V28.5387
p2569
sg22
V-82.4061
p2570
sg11
S'Friday, 11. May 2012 11:27AM'
p2571
sg24
L385L
ssL386L
(dp2572
g3
VPort Saint Lucie
p2573
sg5
V3527
p2574
sg7
VWalmart
p2575
sg13
V(772) 873-2221
p2576
sg30
V1675 Nw Saint Lucie West Blvd
p2577
sg9
V34986
p2578
sg33
VIn stock
p2579
sg35
VPort Saint Lucie
p2580
sg15
VFL
p2581
sg17
I3
sg18
V1675 Nw Saint Lucie West Blvd
p2582
sg20
V27.3124
p2583
sg22
V-80.4018
p2584
sg11
S'Friday, 11. May 2012 11:27AM'
p2585
sg24
L386L
ssL2441L
(dp2586
g3
VLake Worth
p2587
sg5
V5759
p2588
sg7
VWalmart
p2589
sg9
V33467
p2590
sg11
S'Friday, 11. May 2012 11:27AM'
p2591
sg13
V(561) 964-5008
p2592
sg15
VFL
p2593
sg17
Nsg18
V6177 S Jog Rd
p2594
sg20
V26.5874
p2595
sg22
V-80.1485
p2596
sg24
L2441L
ssL1930L
(dp2597
g3
VBoynton Beach
p2598
sg5
V5911
p2599
sg7
VWalmart
p2600
sg9
V33435
p2601
sg11
S'Friday, 11. May 2012 11:27AM'
p2602
sg13
V(561) 600-3088
p2603
sg15
VFL
p2604
sg17
Nsg18
V3625 S Federal Hwy
p2605
sg20
V26.4931
p2606
sg22
V-80.0641
p2607
sg24
L1930L
ssL908L
(dp2608
g3
VFlorida City
p2609
sg5
V2727
p2610
sg7
VWalmart
p2611
sg13
V(305) 242-4447
p2612
sg30
V33501 S Dixie Hwy
p2613
sg9
V33034
p2614
sg33
VIn stock
p2615
sg35
VFlorida City
p2616
sg15
VFL
p2617
sg17
I3
sg18
V33501 S Dixie Hwy
p2618
sg20
V25.454
p2619
sg22
V-80.475
p2620
sg11
S'Friday, 11. May 2012 11:27AM'
p2621
sg24
L908L
ssL1735L
(dp2622
g3
VNorth Lauderdale
p2623
sg5
V1851
p2624
sg7
VWalmart
p2625
sg13
V(954) 726-3388
p2626
sg30
V7300 W Mcnab Rd
p2627
sg9
V33068
p2628
sg33
VLimited stock
p2629
sg35
VNorth Lauderdale
p2630
sg15
VFL
p2631
sg17
I2
sg18
V7300 W Mcnab Rd
p2632
sg20
V26.207
p2633
sg22
V-80.2215
p2634
sg11
S'Friday, 11. May 2012 11:27AM'
p2635
sg24
L1735L
ssL1261L
(dp2636
g3
VMiddleburg
p2637
sg5
V3308
p2638
sg7
VWalmart
p2639
sg13
V(904) 214-9411
p2640
sg30
V1580 Branan Field Rd
p2641
sg9
V32068
p2642
sg33
VIn stock
p2643
sg35
VMiddleburg
p2644
sg15
VFL
p2645
sg17
I3
sg18
V1580 Branan Field Rd
p2646
sg20
V30.0996
p2647
sg22
V-81.8361
p2648
sg11
S'Friday, 11. May 2012 11:27AM'
p2649
sg24
L1261L
ssL3472L
(dp2650
g3
VSt Augustine
p2651
sg5
V579
p2652
sg7
VWalmart
p2653
sg13
V(904) 797-3309
p2654
sg30
V2355 Us Highway 1 S
p2655
sg9
V32086
p2656
sg33
VIn stock
p2657
sg35
VSt Augustine
p2658
sg15
VFL
p2659
sg17
I3
sg18
V2355 Us Highway 1 S
p2660
sg20
V29.8562
p2661
sg22
V-81.3256
p2662
sg11
S'Friday, 11. May 2012 11:27AM'
p2663
sg24
L3472L
ssL2962L
(dp2664
g3
VNorth Port
p2665
sg5
V3387
p2666
sg7
VWalmart
p2667
sg13
V(941) 423-5266
p2668
sg30
V17000 Tamiami Trl
p2669
sg9
V34287
p2670
sg33
VIn stock
p2671
sg35
VNorth Port
p2672
sg15
VFL
p2673
sg17
I3
sg18
V17000 Tamiami Trl
p2674
sg20
V27.0366
p2675
sg22
V-82.2158
p2676
sg11
S'Friday, 11. May 2012 11:27AM'
p2677
sg24
L2962L
ssL835L
(dp2678
g3
VOrlando
p2679
sg5
V3817
p2680
sg7
VWalmart
p2681
sg9
V32828
p2682
sg11
S'Friday, 11. May 2012 11:27AM'
p2683
sg13
V(407) 207-0071
p2684
sg15
VFL
p2685
sg17
Nsg18
V433 Avalon Park South Blvd
p2686
sg20
V28.5348
p2687
sg22
V-81.1495
p2688
sg24
L835L
ssL404L
(dp2689
g3
VClermont
p2690
sg5
V2695
p2691
sg7
VWalmart
p2692
sg13
V(352) 243-6151
p2693
sg30
V1450 Johns Lake Rd
p2694
sg9
V34711
p2695
sg33
VLimited stock
p2696
sg35
VClermont
p2697
sg15
VFL
p2698
sg17
I2
sg18
V1450 Johns Lake Rd
p2699
sg20
V28.5257
p2700
sg22
V-81.73
p2701
sg11
S'Friday, 11. May 2012 11:27AM'
p2702
sg24
L404L
ssL1262L
(dp2703
g3
VJacksonville
p2704
sg5
V3309
p2705
sg7
VWalmart
p2706
sg13
V(904) 737-7007
p2707
sg30
V4250 Phillips Hwy
p2708
sg9
V32207
p2709
sg33
VLimited stock
p2710
sg35
VJacksonville
p2711
sg15
VFL
p2712
sg17
I2
sg18
V4250 Phillips Hwy
p2713
sg20
V30.2803
p2714
sg22
V-81.629
p2715
sg11
S'Friday, 11. May 2012 11:27AM'
p2716
sg24
L1262L
ssL1599L
(dp2717
g3
VJacksonville
p2718
sg5
V1219
p2719
sg7
VWalmart
p2720
sg9
V32218
p2721
sg11
S'Friday, 11. May 2012 11:27AM'
p2722
sg13
V(904) 764-2855
p2723
sg15
VFL
p2724
sg17
Nsg18
V12100 Lem Turner Rd
p2725
sg20
V30.4523
p2726
sg22
V-81.7053
p2727
sg24
L1599L
ssL922L
(dp2728
g3
VLargo
p2729
sg5
V1712
p2730
sg7
VWalmart
p2731
sg13
V(727) 587-7822
p2732
sg30
V1111 Missouri Ave N
p2733
sg9
V33770
p2734
sg33
VLimited stock
p2735
sg35
VLargo
p2736
sg15
VFL
p2737
sg17
I2
sg18
V1111 Missouri Ave N
p2738
sg20
V27.9261
p2739
sg22
V-82.7894
p2740
sg11
S'Friday, 11. May 2012 11:27AM'
p2741
sg24
L922L
ssL2974L
(dp2742
g3
VTallahassee
p2743
sg5
V1408
p2744
sg7
VWalmart
p2745
sg13
V(850) 574-3588
p2746
sg30
V4400 W Tennessee St
p2747
sg9
V32304
p2748
sg33
VLimited stock
p2749
sg35
VTallahassee
p2750
sg15
VFL
p2751
sg17
I2
sg18
V4400 W Tennessee St
p2752
sg20
V30.4591
p2753
sg22
V-84.3605
p2754
sg11
S'Friday, 11. May 2012 11:27AM'
p2755
sg24
L2974L
ssL2466L
(dp2756
g3
VOrlando
p2757
sg5
V4211
p2758
sg7
VWalmart
p2759
sg9
V32810
p2760
sg11
S'Friday, 11. May 2012 11:27AM'
p2761
sg13
V(407) 294-7276
p2762
sg15
VFL
p2763
sg17
Nsg18
V5559 Clarcona Ocoee Rd
p2764
sg20
V28.6112
p2765
sg22
V-81.4516
p2766
sg24
L2466L
ssL1350L
(dp2767
g3
VGainesville
p2768
sg5
V3877
p2769
sg7
VWalmart
p2770
sg13
V(352) 372-3191
p2771
sg30
V1800 Ne 12Th Ave
p2772
sg9
V32641
p2773
sg33
VIn stock
p2774
sg35
VGainesville
p2775
sg15
VFL
p2776
sg17
I3
sg18
V1800 Ne 12Th Ave
p2777
sg20
V29.6637
p2778
sg22
V-82.3036
p2779
sg11
S'Friday, 11. May 2012 11:27AM'
p2780
sg24
L1350L
ssL1959L
(dp2781
g3
VBrandon
p2782
sg5
V2387
p2783
sg7
VWalmart
p2784
sg13
V(813) 661-4426
p2785
sg30
V11110 Causeway Blvd
p2786
sg9
V33511
p2787
sg33
VIn stock
p2788
sg35
VBrandon
p2789
sg15
VFL
p2790
sg17
I3
sg18
V11110 Causeway Blvd
p2791
sg20
V27.9224
p2792
sg22
V-82.3273
p2793
sg11
S'Friday, 11. May 2012 11:27AM'
p2794
sg24
L1959L
ssL428L
(dp2795
g3
VTampa
p2796
sg5
V1960
p2797
sg7
VWalmart
p2798
sg13
V(813) 872-6992
p2799
sg30
V1505 N Dale Mabry Hwy
p2800
sg9
V33607
p2801
sg33
VLimited stock
p2802
sg35
VTampa
p2803
sg15
VFL
p2804
sg17
I2
sg18
V1505 N Dale Mabry Hwy
p2805
sg20
V27.9565
p2806
sg22
V-82.5044
p2807
sg11
S'Friday, 11. May 2012 11:27AM'
p2808
sg24
L428L
ssL434L
(dp2809
g3
VDoral
p2810
sg5
V2091
p2811
sg7
VWalmart
p2812
sg13
V(305) 470-4510
p2813
sg30
V8651 Nw 13Th Ter
p2814
sg9
V33126
p2815
sg33
VIn stock
p2816
sg35
VDoral
p2817
sg15
VFL
p2818
sg17
I3
sg18
V8651 Nw 13Th Ter
p2819
sg20
V25.787
p2820
sg22
V-80.3356
p2821
sg11
S'Friday, 11. May 2012 11:27AM'
p2822
sg24
L434L
ssL1566L
(dp2823
g3
VDelray Beach
p2824
sg5
V1589
p2825
sg7
VWalmart
p2826
sg9
V33484
p2827
sg11
S'Friday, 11. May 2012 11:27AM'
p2828
sg13
V(561) 495-8127
p2829
sg15
VFL
p2830
sg17
Nsg18
V16205 S Military Trl
p2831
sg20
V26.4362
p2832
sg22
V-80.1244
p2833
sg24
L1566L
ssL1981L
(dp2834
g3
VPort St Lucie
p2835
sg5
V4260
p2836
sg7
VWalmart
p2837
sg13
V(772) 336-8212
p2838
sg30
V1850 Sw Gatlin Blvd
p2839
sg9
V34953
p2840
sg33
VIn stock
p2841
sg35
VPort St Lucie
p2842
sg15
VFL
p2843
sg17
I3
sg18
V1850 Sw Gatlin Blvd
p2844
sg20
V27.2625
p2845
sg22
V-80.4033
p2846
sg11
S'Friday, 11. May 2012 11:27AM'
p2847
sg24
L1981L
ssL958L
(dp2848
g3
VCape Coral
p2849
sg5
V819
p2850
sg7
VWalmart
p2851
sg13
V(239) 772-9220
p2852
sg30
V1619 Del Prado Blvd S
p2853
sg9
V33990
p2854
sg33
VIn stock
p2855
sg35
VCape Coral
p2856
sg15
VFL
p2857
sg17
I3
sg18
V1619 Del Prado Blvd S
p2858
sg20
V26.6197
p2859
sg22
V-81.9395
p2860
sg11
S'Friday, 11. May 2012 11:27AM'
p2861
sg24
L958L
ssL961L
(dp2862
g3
VArcadia
p2863
sg5
V811
p2864
sg7
VWalmart
p2865
sg13
V(863) 993-1677
p2866
sg30
V2725 Se Highway 70
p2867
sg9
V34266
p2868
sg33
VLimited stock
p2869
sg35
VArcadia
p2870
sg15
VFL
p2871
sg17
I2
sg18
V2725 Se Highway 70
p2872
sg20
V27.2059
p2873
sg22
V-81.8265
p2874
sg11
S'Friday, 11. May 2012 11:27AM'
p2875
sg24
L961L
ssL964L
(dp2876
g3
VOkeechobee
p2877
sg5
V814
p2878
sg7
VWalmart
p2879
sg13
V(863) 763-7070
p2880
sg30
V2101 S Parrott Ave
p2881
sg9
V34974
p2882
sg33
VOut of stock
p2883
sg35
VOkeechobee
p2884
sg15
VFL
p2885
sg17
I0
sg18
V2101 S Parrott Ave
p2886
sg20
V27.2219
p2887
sg22
V-80.8298
p2888
sg11
S'Friday, 11. May 2012 11:27AM'
p2889
sg24
L964L
ssL967L
(dp2890
g3
VKissimmee
p2891
sg5
V817
p2892
sg7
VWalmart
p2893
sg13
V(407) 397-7000
p2894
sg30
V4444 W Vine St
p2895
sg9
V34746
p2896
sg33
VIn stock
p2897
sg35
VKissimmee
p2898
sg15
VFL
p2899
sg17
I3
sg18
V4444 W Vine St
p2900
sg20
V28.3018
p2901
sg22
V-81.4587
p2902
sg11
S'Friday, 11. May 2012 11:27AM'
p2903
sg24
L967L
ssL969L
(dp2904
g3
VSanford
p2905
sg5
V3207
p2906
sg7
VWalmart
p2907
sg13
V(407) 321-1540
p2908
sg30
V1601 Rinehart Rd
p2909
sg9
V32771
p2910
sg33
VIn stock
p2911
sg35
VSanford
p2912
sg15
VFL
p2913
sg17
I3
sg18
V1601 Rinehart Rd
p2914
sg20
V28.8037
p2915
sg22
V-81.3305
p2916
sg11
S'Friday, 11. May 2012 11:27AM'
p2917
sg24
L969L
ssL1994L
(dp2918
g3
VOcala
p2919
sg5
V1847
p2920
sg7
VWalmart
p2921
sg13
V(352) 236-1188
p2922
sg30
V4980 E Silver Springs Blvd
p2923
sg9
V34470
p2924
sg33
VIn stock
p2925
sg35
VOcala
p2926
sg15
VFL
p2927
sg17
I3
sg18
V4980 E Silver Springs Blvd
p2928
sg20
V29.21
p2929
sg22
V-82.0655
p2930
sg11
S'Friday, 11. May 2012 11:27AM'
p2931
sg24
L1994L
ssL3019L
(dp2932
g3
VSt Petersburg
p2933
sg5
V1536
p2934
sg7
VWalmart
p2935
sg13
V(727) 347-1188
p2936
sg30
V3993 Tyrone Blvd N
p2937
sg9
V33709
p2938
sg33
VIn stock
p2939
sg35
VSt Petersburg
p2940
sg15
VFL
p2941
sg17
I3
sg18
V3993 Tyrone Blvd N
p2942
sg20
V27.8095
p2943
sg22
V-82.7504
p2944
sg11
S'Friday, 11. May 2012 11:27AM'
p2945
sg24
L3019L
ssL1996L
(dp2946
g3
VCooper City
p2947
sg5
V1845
p2948
sg7
VWalmart
p2949
sg13
V(954) 680-7810
p2950
sg30
V4700 S Flamingo Rd
p2951
sg9
V33330
p2952
sg33
VIn stock
p2953
sg35
VCooper City
p2954
sg15
VFL
p2955
sg17
I3
sg18
V4700 S Flamingo Rd
p2956
sg20
V26.0621
p2957
sg22
V-80.3106
p2958
sg11
S'Friday, 11. May 2012 11:27AM'
p2959
sg24
L1996L
ssL1997L
(dp2960
g3
VOrlando
p2961
sg5
V4425
p2962
sg7
VWalmart
p2963
sg9
V32818
p2964
sg11
S'Friday, 11. May 2012 11:27AM'
p2965
sg13
V(407) 522-4552
p2966
sg15
VFL
p2967
sg17
Nsg18
V7818 Colonial West Drive
p2968
sg20
V28.5502
p2969
sg22
V-81.4913
p2970
sg24
L1997L
ssL1486L
(dp2971
g3
VNaples
p2972
sg5
V5391
p2973
sg7
VWalmart
p2974
sg13
V(239) 254-8310
p2975
sg30
V5420 Juliet Blvd
p2976
sg9
V34109
p2977
sg33
VIn stock
p2978
sg35
VNaples
p2979
sg15
VFL
p2980
sg17
I3
sg18
V5420 Juliet Blvd
p2981
sg20
V26.2725
p2982
sg22
V-81.7431
p2983
sg11
S'Friday, 11. May 2012 11:27AM'
p2984
sg24
L1486L
ssL3766L
(dp2985
g3
VHaines City
p2986
sg5
V725
p2987
sg7
VWalmart
p2988
sg13
V(863) 422-7537
p2989
sg30
V36205 Us Highway 27
p2990
sg9
V33844
p2991
sg33
VLimited stock
p2992
sg35
VHaines City
p2993
sg15
VFL
p2994
sg17
I2
sg18
V36205 Us Highway 27
p2995
sg20
V28.1267
p2996
sg22
V-81.639
p2997
sg11
S'Friday, 11. May 2012 11:27AM'
p2998
sg24
L3766L
ssL2552L
(dp2999
g3
VSpring Hill
p3000
sg5
V967
p3001
sg7
VWalmart
p3002
sg13
V(352) 686-0744
p3003
sg30
V1485 Commercial Way
p3004
sg9
V34606
p3005
sg33
VOut of stock
p3006
sg35
VSpring Hill
p3007
sg15
VFL
p3008
sg17
I0
sg18
V1485 Commercial Way
p3009
sg20
V28.4588
p3010
sg22
V-82.6279
p3011
sg11
S'Friday, 11. May 2012 11:27AM'
p3012
sg24
L2552L
ssL3026L
(dp3013
g3
VTitusville
p3014
sg5
V649
p3015
sg7
VWalmart
p3016
sg13
V(321) 267-5825
p3017
sg30
V3175 Cheney Hwy
p3018
sg9
V32780
p3019
sg33
VLimited stock
p3020
sg35
VTitusville
p3021
sg15
VFL
p3022
sg17
I2
sg18
V3175 Cheney Hwy
p3023
sg20
V28.5559
p3024
sg22
V-80.8449
p3025
sg11
S'Friday, 11. May 2012 11:27AM'
p3026
sg24
L3026L
ssL3540L
(dp3027
g3
VPompano Beach
p3028
sg5
V1517
p3029
sg7
VWalmart
p3030
sg13
V(954) 784-0220
p3031
sg30
V300 W Copans Rd
p3032
sg9
V33064
p3033
sg33
VOut of stock
p3034
sg35
VPompano Beach
p3035
sg15
VFL
p3036
sg17
I0
sg18
V300 W Copans Rd
p3037
sg20
V26.2586
p3038
sg22
V-80.1284
p3039
sg11
S'Friday, 11. May 2012 11:27AM'
p3040
sg24
L3540L
ssL3542L
(dp3041
g3
VMiramar
p3042
sg5
V1511
p3043
sg7
VWalmart
p3044
sg13
V(954) 433-9300
p3045
sg30
V1800 S University Dr
p3046
sg9
V33025
p3047
sg33
VOut of stock
p3048
sg35
VMiramar
p3049
sg15
VFL
p3050
sg17
I0
sg18
V1800 S University Dr
p3051
sg20
V25.9935
p3052
sg22
V-80.2504
p3053
sg11
S'Friday, 11. May 2012 11:27AM'
p3054
sg24
L3542L
ssL1529L
(dp3055
g3
VDeltona
p3056
sg5
V3310
p3057
sg7
VWalmart
p3058
sg13
V(407) 328-8052
p3059
sg30
V101 Howland Blvd
p3060
sg9
V32738
p3061
sg33
VIn stock
p3062
sg35
VDeltona
p3063
sg15
VFL
p3064
sg17
I3
sg18
V101 Howland Blvd
p3065
sg20
V28.8706
p3066
sg22
V-81.1633
p3067
sg11
S'Friday, 11. May 2012 11:27AM'
p3068
sg24
L1529L
ssL3544L
(dp3069
g3
VPalm Harbor
p3070
sg5
V1513
p3071
sg7
VWalmart
p3072
sg13
V(727) 784-8797
p3073
sg30
V35404 Us Highway 19 N
p3074
sg9
V34684
p3075
sg33
VLimited stock
p3076
sg35
VPalm Harbor
p3077
sg15
VFL
p3078
sg17
I2
sg18
V35404 Us Highway 19 N
p3079
sg20
V28.0938
p3080
sg22
V-82.7405
p3081
sg11
S'Friday, 11. May 2012 11:27AM'
p3082
sg24
L3544L
ssL3548L
(dp3083
g3
VPalm Springs
p3084
sg5
V5882
p3085
sg7
VWalmart
p3086
sg13
V(561) 223-4357
p3087
sg30
V2765 10Th Ave N
p3088
sg9
V33461
p3089
sg33
VLimited stock
p3090
sg35
VPalm Springs
p3091
sg15
VFL
p3092
sg17
I2
sg18
V2765 10Th Ave N
p3093
sg20
V26.6307
p3094
sg22
V-80.084
p3095
sg11
S'Friday, 11. May 2012 11:27AM'
p3096
sg24
L3548L
ssL2556L
(dp3097
g3
VTampa
p3098
sg5
V4681
p3099
sg7
VWalmart
p3100
sg13
V(813) 371-9444
p3101
sg30
V4302 W Gandy Blvd
p3102
sg9
V33611
p3103
sg33
VIn stock
p3104
sg35
VTampa
p3105
sg15
VFL
p3106
sg17
I3
sg18
V4302 W Gandy Blvd
p3107
sg20
V27.892
p3108
sg22
V-82.5164
p3109
sg11
S'Friday, 11. May 2012 11:27AM'
p3110
sg24
L2556L
ssL165L
(dp3111
g3
VPalatka
p3112
sg5
V551
p3113
sg7
VWalmart
p3114
sg13
V(386) 328-6733
p3115
sg30
V1024 So. State Road
p3116
sg9
V32177
p3117
sg33
VIn stock
p3118
sg35
VPalatka
p3119
sg15
VFL
p3120
sg17
I3
sg18
V1024 So. State Road
p3121
sg20
V29.6583
p3122
sg22
V-81.6686
p3123
sg11
S'Friday, 11. May 2012 11:27AM'
p3124
sg24
L165L
ssL1482L
(dp3125
g3
VSeffner
p3126
sg5
V925
p3127
sg7
VWalmart
p3128
sg13
V(813) 681-6654
p3129
sg30
V11720 E Dr Martin Luther King
p3130
sg9
V33584
p3131
sg33
VLimited stock
p3132
sg35
VSeffner
p3133
sg15
VFL
p3134
sg17
I2
sg18
V11720 E Dr Martin Luther King
p3135
sg20
V27.9816
p3136
sg22
V-82.3022
p3137
sg11
S'Friday, 11. May 2012 11:27AM'
p3138
sg24
L1482L
ssL993L
(dp3139
g3
VHudson
p3140
sg5
V5266
p3141
sg7
VWalmart
p3142
sg13
V(727) 861-0040
p3143
sg30
V12610 Us Highway 19
p3144
sg9
V34667
p3145
sg33
VIn stock
p3146
sg35
VHudson
p3147
sg15
VFL
p3148
sg17
I3
sg18
V12610 Us Highway 19
p3149
sg20
V28.338
p3150
sg22
V-82.699
p3151
sg11
S'Friday, 11. May 2012 11:27AM'
p3152
sg24
L993L
ssL994L
(dp3153
g3
VMelbourne
p3154
sg5
V1702
p3155
sg7
VWalmart
p3156
sg13
V(321) 242-1601
p3157
sg30
V1000 North Wickham R
p3158
sg9
V32935
p3159
sg33
VIn stock
p3160
sg35
VMelbourne
p3161
sg15
VFL
p3162
sg17
I3
sg18
V1000 North Wickham R
p3163
sg20
V28.1219
p3164
sg22
V-80.6713
p3165
sg11
S'Friday, 11. May 2012 11:27AM'
p3166
sg24
L994L
ssL995L
(dp3167
g3
VOsprey
p3168
sg5
V5264
p3169
sg7
VWalmart
p3170
sg13
V(941) 918-1247
p3171
sg30
V13140 South Tamiami Trail
p3172
sg9
V34229
p3173
sg33
VIn stock
p3174
sg35
VOsprey
p3175
sg15
VFL
p3176
sg17
I3
sg18
V13140 South Tamiami Trail
p3177
sg20
V27.1932
p3178
sg22
V-82.486
p3179
sg11
S'Friday, 11. May 2012 11:27AM'
p3180
sg24
L995L
ssL487L
(dp3181
g3
VOcala
p3182
sg5
V697
p3183
sg7
VWalmart
p3184
sg13
V(352) 237-7155
p3185
sg30
V2600 Sw 19Th Avenue Rd
p3186
sg9
V34471
p3187
sg33
VIn stock
p3188
sg35
VOcala
p3189
sg15
VFL
p3190
sg17
I3
sg18
V2600 Sw 19Th Avenue Rd
p3191
sg20
V29.1586
p3192
sg22
V-82.1688
p3193
sg11
S'Friday, 11. May 2012 11:27AM'
p3194
sg24
L487L
ssL1039L
(dp3195
g3
VBraden River
p3196
sg5
V528
p3197
sg7
VWalmart
p3198
sg13
V(941) 753-6751
p3199
sg30
V2911 53Rd Ave E
p3200
sg9
V34203
p3201
sg33
VLimited stock
p3202
sg35
VBraden River
p3203
sg15
VFL
p3204
sg17
I2
sg18
V2911 53Rd Ave E
p3205
sg20
V27.4478
p3206
sg22
V-82.53
p3207
sg11
S'Friday, 11. May 2012 11:27AM'
p3208
sg24
L1039L
ssL489L
(dp3209
g3
VWest Palm Beach
p3210
sg5
V1541
p3211
sg7
VWalmart
p3212
sg13
V(561) 795-0017
p3213
sg30
V9990 Belvedere Rd
p3214
sg9
V33411
p3215
sg33
VIn stock
p3216
sg35
VWest Palm Beach
p3217
sg15
VFL
p3218
sg17
I3
sg18
V9990 Belvedere Rd
p3219
sg20
V26.6905
p3220
sg22
V-80.2008
p3221
sg11
S'Friday, 11. May 2012 11:27AM'
p3222
sg24
L489L
ssL679L
(dp3223
g3
VJacksonville
p3224
sg5
V5054
p3225
sg7
VWalmart
p3226
sg13
V(904) 641-8088
p3227
sg30
V11900 Atlantic Blvd
p3228
sg9
V32225
p3229
sg33
VIn stock
p3230
sg35
VJacksonville
p3231
sg15
VFL
p3232
sg17
I3
sg18
V11900 Atlantic Blvd
p3233
sg20
V30.3209
p3234
sg22
V-81.4905
p3235
sg11
S'Friday, 11. May 2012 11:27AM'
p3236
sg24
L679L
ssL2540L
(dp3237
g3
VJacksonville
p3238
sg5
V4444
p3239
sg7
VWalmart
p3240
sg13
V(904) 288-8211
p3241
sg30
V10251 Shops Ln
p3242
sg9
V32258
p3243
sg33
VIn stock
p3244
sg35
VJacksonville
p3245
sg15
VFL
p3246
sg17
I3
sg18
V10251 Shops Ln
p3247
sg20
V30.1766
p3248
sg22
V-81.5554
p3249
sg11
S'Friday, 11. May 2012 11:27AM'
p3250
sg24
L2540L
ssL3056L
(dp3251
g3
VBrandon
p3252
sg5
V3463
p3253
sg7
VWalmart
p3254
sg13
V(813) 651-9040
p3255
sg30
V1208 E Brandon Blvd
p3256
sg9
V33511
p3257
sg33
VIn stock
p3258
sg35
VBrandon
p3259
sg15
VFL
p3260
sg17
I3
sg18
V1208 E Brandon Blvd
p3261
sg20
V27.9384
p3262
sg22
V-82.263
p3263
sg11
S'Friday, 11. May 2012 11:27AM'
p3264
sg24
L3056L
ssL2033L
(dp3265
g3
VSanford
p3266
sg5
V857
p3267
sg7
VWalmart
p3268
sg13
V(407) 321-1371
p3269
sg30
V3653 S Orlando Dr
p3270
sg9
V32773
p3271
sg33
VLimited stock
p3272
sg35
VSanford
p3273
sg15
VFL
p3274
sg17
I2
sg18
V3653 S Orlando Dr
p3275
sg20
V28.7616
p3276
sg22
V-81.2842
p3277
sg11
S'Friday, 11. May 2012 11:27AM'
p3278
sg24
L2033L
ssL3571L
(dp3279
g3
VLynn Haven
p3280
sg5
V1032
p3281
sg7
VWalmart
p3282
sg13
V(850) 265-2626
p3283
sg30
V2101 S Highway 77
p3284
sg9
V32444
p3285
sg33
VIn stock
p3286
sg35
VLynn Haven
p3287
sg15
VFL
p3288
sg17
I3
sg18
V2101 S Highway 77
p3289
sg20
V30.2265
p3290
sg22
V-85.6464
p3291
sg11
S'Friday, 11. May 2012 11:27AM'
p3292
sg24
L3571L
ssL500L
(dp3293
g3
VPlant City
p3294
sg5
V547
p3295
sg7
VWalmart
p3296
sg13
V(813) 752-1188
p3297
sg30
V2602 James L Redman Pkwy
p3298
sg9
V33566
p3299
sg33
VIn stock
p3300
sg35
VPlant City
p3301
sg15
VFL
p3302
sg17
I3
sg18
V2602 James L Redman Pkwy
p3303
sg20
V27.9859
p3304
sg22
V-82.1189
p3305
sg11
S'Friday, 11. May 2012 11:27AM'
p3306
sg24
L500L
ssL2040L
(dp3307
g3
VLake Wales
p3308
sg5
V859
p3309
sg7
VWalmart
p3310
sg13
V(863) 676-9425
p3311
sg30
V2000 State Road 60 E
p3312
sg9
V33898
p3313
sg33
VLimited stock
p3314
sg35
VLake Wales
p3315
sg15
VFL
p3316
sg17
I2
sg18
V2000 State Road 60 E
p3317
sg20
V27.8927
p3318
sg22
V-81.5544
p3319
sg11
S'Friday, 11. May 2012 11:27AM'
p3320
sg24
L2040L
ssL2553L
(dp3321
g3
VDunnellon
p3322
sg5
V960
p3323
sg7
VWalmart
p3324
sg13
V(352) 489-4210
p3325
sg30
V11012 No. Williams S
p3326
sg9
V34432
p3327
sg33
VIn stock
p3328
sg35
VDunnellon
p3329
sg15
VFL
p3330
sg17
I3
sg18
V11012 No. Williams S
p3331
sg20
V29.0612
p3332
sg22
V-82.4547
p3333
sg11
S'Friday, 11. May 2012 11:27AM'
p3334
sg24
L2553L
ssL2044L
(dp3335
g3
VDaytona Beach
p3336
sg5
V3862
p3337
sg7
VWalmart
p3338
sg9
V32117
p3339
sg11
S'Friday, 11. May 2012 11:27AM'
p3340
sg13
V(386) 672-3836
p3341
sg15
VFL
p3342
sg17
Nsg18
V1905 N Nova Rd
p3343
sg20
V29.248
p3344
sg22
V-81.0671
p3345
sg24
L2044L
ssL2559L
(dp3346
g3
VWinter Haven
p3347
sg5
V968
p3348
sg7
VWalmart
p3349
sg13
V(863) 299-5527
p3350
sg30
V355 Cypress Gardens Blvd
p3351
sg9
V33880
p3352
sg33
VIn stock
p3353
sg35
VWinter Haven
p3354
sg15
VFL
p3355
sg17
I3
sg18
V355 Cypress Gardens Blvd
p3356
sg20
V28.0041
p3357
sg22
V-81.7235
p3358
sg11
S'Friday, 11. May 2012 11:27AM'
p3359
sg24
L2559L
ss.