(dp1
L2049L
(dp2
S'availcode'
p3
NsS'id'
p4
L2049L
sS'last_update'
p5
S'Thursday, 10. May 2012 09:07PM'
p6
ssL2L
(dp7
S'num'
p8
V4446
p9
sS'store_address'
p10
V4225 45Th St
p11
sS'availbility'
p12
VLimited stock
p13
sS'zipcode'
p14
V33407
p15
sS'store_name'
p16
VWest Palm Beach
p17
sg3
I2
sg5
S'Thursday, 10. May 2012 09:07PM'
p18
sg4
L2L
ssL428L
(dp19
g8
V1960
p20
sg10
V1505 N Dale Mabry Hwy
p21
sg12
VLimited stock
p22
sg14
V33607
p23
sg16
VTampa
p24
sg3
I2
sg5
S'Thursday, 10. May 2012 09:07PM'
p25
sg4
L428L
ssL2050L
(dp26
g8
V5220
p27
sg10
V8220 N Dale Mabry Hwy
p28
sg12
VLimited stock
p29
sg14
V33614
p30
sg16
VTampa
p31
sg3
I2
sg5
S'Thursday, 10. May 2012 09:07PM'
p32
sg4
L2050L
ssL527L
(dp33
g8
V1387
p34
sg10
V3801 Turtle Creek Dr
p35
sg12
VLimited stock
p36
sg14
V33067
p37
sg16
VCoral Springs
p38
sg3
I2
sg5
S'Thursday, 10. May 2012 09:07PM'
p39
sg4
L527L
ssL1552L
(dp40
g3
Nsg4
L1552L
sg5
S'Thursday, 10. May 2012 09:07PM'
p41
ssL1554L
(dp42
g8
V3311
p43
sg10
V19501 Nw 27Th Ave
p44
sg12
VLimited stock
p45
sg14
V33056
p46
sg16
VMiami Gardens
p47
sg3
I2
sg5
S'Thursday, 10. May 2012 09:07PM'
p48
sg4
L1554L
ssL3022L
(dp49
g8
V1245
p50
sg10
V5800 Us Highway 98 N
p51
sg12
VLimited stock
p52
sg14
V33809
p53
sg16
VLakeland
p54
sg3
I2
sg5
S'Thursday, 10. May 2012 09:07PM'
p55
sg4
L3022L
ssL3759L
(dp56
g8
V1182
p57
sg10
V174 Cypress Point Pkwy
p58
sg12
VLimited stock
p59
sg14
V32164
p60
sg16
VPalm Coast
p61
sg3
I2
sg5
S'Thursday, 10. May 2012 09:07PM'
p62
sg4
L3759L
ssL1054L
(dp63
g3
Nsg4
L1054L
sg5
S'Thursday, 10. May 2012 09:07PM'
p64
ssL2080L
(dp65
g8
V718
p66
sg10
V2120 Us Highway 92 W
p67
sg12
VLimited stock
p68
sg14
V33823
p69
sg16
VAuburndale
p70
sg3
I2
sg5
S'Thursday, 10. May 2012 09:07PM'
p71
sg4
L2080L
ssL2736L
(dp72
g3
Nsg4
L2736L
sg5
S'Thursday, 10. May 2012 09:07PM'
p73
ssL36L
(dp74
g8
V5854
p75
sg10
V8400 Coral Way
p76
sg12
VLimited stock
p77
sg14
V33155
p78
sg16
VMiami
p79
sg3
I2
sg5
S'Thursday, 10. May 2012 09:07PM'
p80
sg4
L36L
ssL3109L
(dp81
g8
V944
p82
sg10
V3351 S Ferdon Blvd
p83
sg12
VLimited stock
p84
sg14
V32536
p85
sg16
VCrestview
p86
sg3
I2
sg5
S'Thursday, 10. May 2012 09:07PM'
p87
sg4
L3109L
ssL3110L
(dp88
g3
Nsg4
L3110L
sg5
S'Thursday, 10. May 2012 09:07PM'
p89
ssL2599L
(dp90
g8
V2740
p91
sg10
V19910 Bruce B Downs Blvd
p92
sg12
VOut of stock
p93
sg14
V33647
p94
sg16
VTampa
p95
sg3
I0
sg5
S'Thursday, 10. May 2012 09:07PM'
p96
sg4
L2599L
ssL3112L
(dp97
g8
V943
p98
sg10
V1239 State Road 436 Ste 101
p99
sg12
VLimited stock
p100
sg14
V32707
p101
sg16
VCasselberry
p102
sg3
I2
sg5
S'Thursday, 10. May 2012 09:07PM'
p103
sg4
L3112L
ssL3114L
(dp104
g8
V941
p105
sg10
V949 E Bloomingdale Ave
p106
sg12
VLimited stock
p107
sg14
V33511
p108
sg16
VBrandon
p109
sg3
I2
sg5
S'Thursday, 10. May 2012 09:07PM'
p110
sg4
L3114L
ssL3116L
(dp111
g8
V5172
p112
sg10
V1900 S Jefferson St
p113
sg12
VLimited stock
p114
sg14
V32348
p115
sg16
VPerry
p116
sg3
I2
sg5
S'Thursday, 10. May 2012 09:07PM'
p117
sg4
L3116L
ssL2605L
(dp118
g3
Nsg4
L2605L
sg5
S'Thursday, 10. May 2012 09:07PM'
p119
ssL2909L
(dp120
g8
V713
p121
sg10
V12650 Us Highway 301
p122
sg12
VLimited stock
p123
sg14
V33525
p124
sg16
VDade City
p125
sg3
I2
sg5
S'Thursday, 10. May 2012 09:07PM'
p126
sg4
L2909L
ssL8243L
(dp127
S'num'
p128
V1468
p129
sS'name'
p130
VDothan
p131
sS'availbility'
p132
VLimited Availability
p133
sS'last_update'
p134
S'Thursday, 10. May 2012 01:04PM'
p135
sS'availcode'
p136
I2
sS'id'
p137
L8243L
ssL1589L
(dp138
g8
V1213
p139
sg10
V13300 Cortez Blvd
p140
sg12
VLimited stock
p141
sg14
V34613
p142
sg16
VBrooksville
p143
sg3
I2
sg5
S'Thursday, 10. May 2012 09:07PM'
p144
sg4
L1589L
ssL180L
(dp145
g3
Nsg4
L180L
sg5
S'Thursday, 10. May 2012 09:07PM'
p146
ssL3130L
(dp147
g8
V3417
p148
sg10
V6650 Collier Blvd
p149
sg12
VLimited stock
p150
sg14
V34114
p151
sg16
VNaples
p152
sg3
I2
sg5
S'Thursday, 10. May 2012 09:07PM'
p153
sg4
L3130L
ssL3338L
(dp154
g8
V1590
p155
sg10
V5851 Nw 177Th St
p156
sg12
VIn stock
p157
sg14
V33015
p158
sg16
VHialeah
p159
sg3
I3
sg5
S'Thursday, 10. May 2012 09:07PM'
p160
sg4
L3338L
ssL3647L
(dp161
g8
V987
p162
sg10
V14821 Ben C Pratt/6 Mile Cypre
p163
sg12
VOut of stock
p164
sg14
V33912
p165
sg16
VFort Myers
p166
sg3
I0
sg5
S'Thursday, 10. May 2012 09:07PM'
p167
sg4
L3647L
ssL580L
(dp168
g8
V5872
p169
sg10
V6712 Us Highway 98 W
p170
sg12
VLimited stock
p171
sg14
V32459
p172
sg16
VSanta Rosa Beach
p173
sg3
I2
sg5
S'Thursday, 10. May 2012 09:07PM'
p174
sg4
L580L
ssL182L
(dp175
g8
V3347
p176
sg10
V7450 Cypress Gardens Blvd
p177
sg12
VLimited stock
p178
sg14
V33884
p179
sg16
VWinter Haven
p180
sg3
I2
sg5
S'Thursday, 10. May 2012 09:07PM'
p181
sg4
L182L
ssL582L
(dp182
g3
Nsg4
L582L
sg5
S'Thursday, 10. May 2012 09:07PM'
p183
ssL583L
(dp184
g3
Nsg4
L583L
sg5
S'Thursday, 10. May 2012 09:07PM'
p185
ssL1099L
(dp186
g3
Nsg4
L1099L
sg5
S'Thursday, 10. May 2012 09:07PM'
p187
ssL2639L
(dp188
g8
V3235
p189
sg10
V1425 Ne 163Rd St
p190
sg12
VIn stock
p191
sg14
V33162
p192
sg16
VNorth Miami Beach
p193
sg3
I3
sg5
S'Thursday, 10. May 2012 09:07PM'
p194
sg4
L2639L
ssL8273L
(dp195
g128
V1499
p196
sg130
VOpelika
p197
sg132
VLimited Availability
p198
sg134
S'Thursday, 10. May 2012 01:04PM'
p199
sg136
I2
sg137
L8273L
ssL1620L
(dp200
g8
V1104
p201
sg10
V2461 E Gulf To Lake Hwy
p202
sg12
VLimited stock
p203
sg14
V34453
p204
sg16
VInverness
p205
sg3
I2
sg5
S'Thursday, 10. May 2012 09:07PM'
p206
sg4
L1620L
ssL3668L
(dp207
g8
V2789
p208
sg10
V3200 Old Boynton Rd
p209
sg12
VLimited stock
p210
sg14
V33436
p211
sg16
VBoynton Beach
p212
sg3
I2
sg5
S'Thursday, 10. May 2012 09:07PM'
p213
sg4
L3668L
ssL2651L
(dp214
g8
V2963
p215
sg10
V6001 Coral Ridge Dr
p216
sg12
VIn stock
p217
sg14
V33076
p218
sg16
VCoral Springs
p219
sg3
I3
sg5
S'Thursday, 10. May 2012 09:07PM'
p220
sg4
L2651L
ssL2652L
(dp221
g8
V2962
p222
sg10
V2300 W Atlantic Blvd
p223
sg12
VOut of stock
p224
sg14
V33069
p225
sg16
VPompano Beach
p226
sg3
I0
sg5
S'Thursday, 10. May 2012 09:07PM'
p227
sg4
L2652L
ssL3770L
(dp228
g8
V721
p229
sg10
V19100 Murdock Cir
p230
sg12
VLimited stock
p231
sg14
V33948
p232
sg16
VPort Charlotte
p233
sg3
I2
sg5
S'Thursday, 10. May 2012 09:07PM'
p234
sg4
L3770L
ssL8803L
(dp235
g128
V2274
p236
sg130
VPrattville
p237
sg132
VLimited Availability
p238
sg134
S'Thursday, 10. May 2012 01:04PM'
p239
sg136
I2
sg137
L8803L
ssL8805L
(dp240
g128
V2276
p241
sg130
VAlabaster
p242
sg132
VLimited Availability
p243
sg134
S'Thursday, 10. May 2012 01:04PM'
p244
sg136
I2
sg137
L8805L
ssL2668L
(dp245
g8
V1079
p246
sg10
V3155 State Rd 44
p247
sg12
VLimited stock
p248
sg14
V32168
p249
sg16
VNew Smyrna Beach
p250
sg3
I2
sg5
S'Thursday, 10. May 2012 09:07PM'
p251
sg4
L2668L
ssL3181L
(dp252
g8
V705
p253
sg10
V17030 Us Highway 441
p254
sg12
VLimited stock
p255
sg14
V32757
p256
sg16
VMount Dora
p257
sg3
I2
sg5
S'Thursday, 10. May 2012 09:07PM'
p258
sg4
L3181L
ssL957L
(dp259
g8
V818
p260
sg10
V10270 Front Beach Rd
p261
sg12
VLimited stock
p262
sg14
V32407
p263
sg16
VPanama City Beach
p264
sg3
I2
sg5
S'Thursday, 10. May 2012 09:07PM'
p265
sg4
L957L
ssL1136L
(dp266
g8
V2081
p267
sg10
V23106 Us Highway 19 N
p268
sg12
VLimited stock
p269
sg14
V33765
p270
sg16
VClearwater
p271
sg3
I2
sg5
S'Thursday, 10. May 2012 09:07PM'
p272
sg4
L1136L
ssL2920L
(dp273
g8
V5300
p274
sg10
V9205 Gibsonton Dr
p275
sg12
VLimited stock
p276
sg14
V33534
p277
sg16
VGibsonton
p278
sg3
I2
sg5
S'Thursday, 10. May 2012 09:07PM'
p279
sg4
L2920L
ssL2163L
(dp280
g8
V5034
p281
sg10
V4770 Colonial Blvd
p282
sg12
VIn stock
p283
sg14
V33966
p284
sg16
VFort Myers
p285
sg3
I3
sg5
S'Thursday, 10. May 2012 09:07PM'
p286
sg4
L2163L
ssL1862L
(dp287
g8
V1205
p288
sg10
V9218 S State Road 228
p289
sg12
VLimited stock
p290
sg14
V32063
p291
sg16
VMacclenny
p292
sg3
I2
sg5
S'Thursday, 10. May 2012 09:07PM'
p293
sg4
L1862L
ssL2238L
(dp294
g8
V5037
p295
sg10
V464016 State Road  200
p296
sg12
VLimited stock
p297
sg14
V32097
p298
sg16
VYulee
p299
sg3
I2
sg5
S'Thursday, 10. May 2012 09:07PM'
p300
sg4
L2238L
ssL2166L
(dp301
g8
V1068
p302
sg10
V2001 Us Highway #1
p303
sg12
VIn stock
p304
sg14
V32958
p305
sg16
VSebastian
p306
sg3
I3
sg5
S'Thursday, 10. May 2012 09:07PM'
p307
sg4
L2166L
ssL3704L
(dp308
g8
V2920
p309
sg10
V1505 County Road 220
p310
sg12
VLimited stock
p311
sg14
V32003
p312
sg16
VOrange Park
p313
sg3
I2
sg5
S'Thursday, 10. May 2012 09:07PM'
p314
sg4
L3704L
ssL2493L
(dp315
g3
Nsg4
L2493L
sg5
S'Thursday, 10. May 2012 09:07PM'
p316
ssL3706L
(dp317
g8
V488
p318
sg10
V1940 Pat Thomas Pkwy
p319
sg12
VIn stock
p320
sg14
V32351
p321
sg16
VQuincy
p322
sg3
I3
sg5
S'Thursday, 10. May 2012 09:07PM'
p323
sg4
L3706L
ssL1659L
(dp324
g3
Nsg4
L1659L
sg5
S'Thursday, 10. May 2012 09:07PM'
p325
ssL2442L
(dp326
g3
Nsg4
L2442L
sg5
S'Thursday, 10. May 2012 09:07PM'
p327
ssL3264L
(dp328
g8
V3702
p329
sg10
V13227 City Square Dr
p330
sg12
VLimited stock
p331
sg14
V32218
p332
sg16
VJacksonville
p333
sg3
I2
sg5
S'Thursday, 10. May 2012 09:07PM'
p334
sg4
L3264L
ssL2691L
(dp335
g8
V1090
p336
sg10
V6767 103Rd St
p337
sg12
VLimited stock
p338
sg14
V32210
p339
sg16
VJacksonville
p340
sg3
I2
sg5
S'Thursday, 10. May 2012 09:07PM'
p341
sg4
L2691L
ssL648L
(dp342
g8
V4520
p343
sg10
V4021 Lagniappe Way
p344
sg12
VLimited stock
p345
sg14
V32317
p346
sg16
VTallahassee
p347
sg3
I2
sg5
S'Thursday, 10. May 2012 09:07PM'
p348
sg4
L648L
ssL2699L
(dp349
g8
V4332
p350
sg10
V8990 Turkey Lake Rd
p351
sg12
VOut of stock
p352
sg14
V32819
p353
sg16
VOrlando
p354
sg3
I0
sg5
S'Thursday, 10. May 2012 09:07PM'
p355
sg4
L2699L
ssL1165L
(dp356
g8
V5455
p357
sg10
V1040 Malabar Rd Se
p358
sg12
VIn stock
p359
sg14
V32907
p360
sg16
VPalm Bay
p361
sg3
I3
sg5
S'Thursday, 10. May 2012 09:07PM'
p362
sg4
L1165L
ssL1645L
(dp363
g8
V5727
p364
sg10
V5810 Ranch Lake Blvd
p365
sg12
VLimited stock
p366
sg14
V34202
p367
sg16
VBradenton
p368
sg3
I2
sg5
S'Thursday, 10. May 2012 09:07PM'
p369
sg4
L1645L
ssL2033L
(dp370
g8
V857
p371
sg10
V3653 S Orlando Dr
p372
sg12
VLimited stock
p373
sg14
V32773
p374
sg16
VSanford
p375
sg3
I2
sg5
S'Thursday, 10. May 2012 09:07PM'
p376
sg4
L2033L
ssL3219L
(dp377
g8
V582
p378
sg10
V1590 Dunlawton Ave
p379
sg12
VLimited stock
p380
sg14
V32127
p381
sg16
VPort Orange
p382
sg3
I2
sg5
S'Thursday, 10. May 2012 09:07PM'
p383
sg4
L3219L
ssL2187L
(dp384
g8
V1077
p385
sg10
V3535 Apalachee Pkwy
p386
sg12
VIn stock
p387
sg14
V32311
p388
sg16
VTallahassee
p389
sg3
I3
sg5
S'Thursday, 10. May 2012 09:07PM'
p390
sg4
L2187L
ssL3221L
(dp391
g8
V580
p392
sg10
V1050 E Van Fleet Dr
p393
sg12
VOut of stock
p394
sg14
V33830
p395
sg16
VBartow
p396
sg3
I0
sg5
S'Thursday, 10. May 2012 09:07PM'
p397
sg4
L3221L
ssL3734L
(dp398
g8
V706
p399
sg10
V7631 Gall Blvd
p400
sg12
VLimited stock
p401
sg14
V33541
p402
sg16
VZephyrhills
p403
sg3
I2
sg5
S'Thursday, 10. May 2012 09:07PM'
p404
sg4
L3734L
ssL8344L
(dp405
g128
V1772
p406
sg130
VBirmingham 280 Corridor
p407
sg132
VLimited Availability
p408
sg134
S'Thursday, 10. May 2012 01:04PM'
p409
sg136
I2
sg137
L8344L
ssL8345L
(dp410
g128
V1773
p411
sg130
VTrussville
p412
sg132
VAvailable
p413
sg134
S'Thursday, 10. May 2012 01:04PM'
p414
sg136
I3
sg137
L8345L
ssL1403L
(dp415
g8
V2237
p416
sg10
V2523 Lee Blvd
p417
sg12
VIn stock
p418
sg14
V33971
p419
sg16
VLehigh Acres
p420
sg3
I3
sg5
S'Thursday, 10. May 2012 09:07PM'
p421
sg4
L1403L
ssL2842L
(dp422
g8
V955
p423
sg10
V1700 S Org Blsmtrail
p424
sg12
VLimited stock
p425
sg14
V32703
p426
sg16
VApopka
p427
sg3
I2
sg5
S'Thursday, 10. May 2012 09:07PM'
p428
sg4
L2842L
ssL1694L
(dp429
g8
V3484
p430
sg10
V2951 S Blue Angel Pkwy
p431
sg12
VLimited stock
p432
sg14
V32506
p433
sg16
VPensacola
p434
sg3
I2
sg5
S'Thursday, 10. May 2012 09:07PM'
p435
sg4
L1694L
ssL1697L
(dp436
g3
Nsg4
L1697L
sg5
S'Thursday, 10. May 2012 09:07PM'
p437
ssL3746L
(dp438
g8
V563
p439
sg10
V2400 Veterans Memorial Pkwy
p440
sg12
VIn stock
p441
sg14
V32763
p442
sg16
VOrange City
p443
sg3
I3
sg5
S'Thursday, 10. May 2012 09:07PM'
p444
sg4
L3746L
ssL2587L
(dp445
g8
V3439
p446
sg10
V9360 Navarre Pkwy
p447
sg12
VLimited stock
p448
sg14
V32566
p449
sg16
VNavarre
p450
sg3
I2
sg5
S'Thursday, 10. May 2012 09:07PM'
p451
sg4
L2587L
ssL3237L
(dp452
g8
V1436
p453
sg10
V6294 Forest Hill Blvd
p454
sg12
VLimited stock
p455
sg14
V33415
p456
sg16
VGreenacres
p457
sg3
I2
sg5
S'Thursday, 10. May 2012 09:07PM'
p458
sg4
L3237L
ssL8358L
(dp459
g128
V1787
p460
sg130
VTuscaloosa
p461
sg132
VAvailable
p462
sg134
S'Thursday, 10. May 2012 01:04PM'
p463
sg136
I3
sg137
L8358L
ssL113L
(dp464
g8
V5299
p465
sg10
V550 Us Highway 27
p466
sg12
VLimited stock
p467
sg14
V34714
p468
sg16
VClermont
p469
sg3
I2
sg5
S'Thursday, 10. May 2012 09:07PM'
p470
sg4
L113L
ssL680L
(dp471
g8
V3538
p472
sg10
V8500 N Wickham Rd
p473
sg12
VLimited stock
p474
sg14
V32940
p475
sg16
VMelbourne
p476
sg3
I2
sg5
S'Thursday, 10. May 2012 09:07PM'
p477
sg4
L680L
ssL8874L
(dp478
g128
V2355
p479
sg130
VFultondale
p480
sg132
VLimited Availability
p481
sg134
S'Thursday, 10. May 2012 01:04PM'
p482
sg136
I2
sg137
L8874L
ssL3243L
(dp483
g8
V3397
p484
sg10
V17650 Nw 2Nd Ave
p485
sg12
VLimited stock
p486
sg14
V33169
p487
sg16
VMiami Gardens
p488
sg3
I2
sg5
S'Thursday, 10. May 2012 09:07PM'
p489
sg4
L3243L
ssL175L
(dp490
g8
V3348
p491
sg10
V101 N Congress Ave
p492
sg12
VIn stock
p493
sg14
V33403
p494
sg16
VLake Park
p495
sg3
I3
sg5
S'Thursday, 10. May 2012 09:07PM'
p496
sg4
L175L
ssL1200L
(dp497
g8
V2151
p498
sg10
V12555 W Sunrise Blvd
p499
sg12
VLimited stock
p500
sg14
V33323
p501
sg16
VSunrise
p502
sg3
I2
sg5
S'Thursday, 10. May 2012 09:07PM'
p503
sg4
L1200L
ssL178L
(dp504
g3
Nsg4
L178L
sg5
S'Thursday, 10. May 2012 09:07PM'
p505
ssL3252L
(dp506
g8
V1349
p507
sg10
V3306 N University Dr
p508
sg12
VLimited stock
p509
sg14
V33351
p510
sg16
VSunrise
p511
sg3
I2
sg5
S'Thursday, 10. May 2012 09:07PM'
p512
sg4
L3252L
ssL3253L
(dp513
g8
V4262
p514
sg10
V4085 Wedgewood Ln
p515
sg12
VLimited stock
p516
sg14
V32162
p517
sg16
VThe Villages
p518
sg3
I2
sg5
S'Thursday, 10. May 2012 09:07PM'
p519
sg4
L3253L
ssL2230L
(dp520
g8
V1087
p521
sg10
V4001 Se Federal Hwy
p522
sg12
VLimited stock
p523
sg14
V34997
p524
sg16
VStuart
p525
sg3
I2
sg5
S'Thursday, 10. May 2012 09:07PM'
p526
sg4
L2230L
ssL722L
(dp527
g8
V908
p528
sg10
V8101 S John Young Pkwy
p529
sg12
VLimited stock
p530
sg14
V32819
p531
sg16
VOrlando
p532
sg3
I2
sg5
S'Thursday, 10. May 2012 09:07PM'
p533
sg4
L722L
ssL176L
(dp534
g8
V3349
p535
sg10
V375 Kings Hwy
p536
sg12
VLimited stock
p537
sg14
V33983
p538
sg16
VPort Charlotte
p539
sg3
I2
sg5
S'Thursday, 10. May 2012 09:07PM'
p540
sg4
L176L
ssL2234L
(dp541
g8
V2591
p542
sg10
V151 Sw 184Th Ave
p543
sg12
VIn stock
p544
sg14
V33029
p545
sg16
VPembroke Pines
p546
sg3
I3
sg5
S'Thursday, 10. May 2012 09:07PM'
p547
sg4
L2234L
ssL2237L
(dp548
g8
V5036
p549
sg10
V6192 Gunn Hwy
p550
sg12
VLimited stock
p551
sg14
V33625
p552
sg16
VTampa
p553
sg3
I2
sg5
S'Thursday, 10. May 2012 09:07PM'
p554
sg4
L2237L
ssL8894L
(dp555
g128
V2375
p556
sg130
VBessemer
p557
sg132
VLimited Availability
p558
sg134
S'Thursday, 10. May 2012 01:04PM'
p559
sg136
I2
sg137
L8894L
ssL2240L
(dp560
g8
V5035
p561
sg10
V6745 N Church Ave
p562
sg12
VLimited stock
p563
sg14
V33860
p564
sg16
VMulberry
p565
sg3
I2
sg5
S'Thursday, 10. May 2012 09:07PM'
p566
sg4
L2240L
ssL3104L
(dp567
g3
Nsg4
L3104L
sg5
S'Thursday, 10. May 2012 09:07PM'
p568
ssL3019L
(dp569
g8
V1536
p570
sg10
V3993 Tyrone Blvd N
p571
sg12
VLimited stock
p572
sg14
V33709
p573
sg16
VSt Petersburg
p574
sg3
I2
sg5
S'Thursday, 10. May 2012 09:07PM'
p575
sg4
L3019L
ssL1222L
(dp576
g8
V1957
p577
sg10
V11225 Tamiami Trl N
p578
sg12
VOut of stock
p579
sg14
V34110
p580
sg16
VNaples
p581
sg3
I0
sg5
S'Thursday, 10. May 2012 09:07PM'
p582
sg4
L1222L
ssL2247L
(dp583
g8
V1874
p584
sg10
V2931 S Mccall Rd
p585
sg12
VLimited stock
p586
sg14
V34224
p587
sg16
VEnglewood
p588
sg3
I2
sg5
S'Thursday, 10. May 2012 09:07PM'
p589
sg4
L2247L
ssL200L
(dp590
g8
V1172
p591
sg10
V13490 Beach Blvd
p592
sg12
VIn stock
p593
sg14
V32224
p594
sg16
VJacksonville
p595
sg3
I3
sg5
S'Thursday, 10. May 2012 09:07PM'
p596
sg4
L200L
ssL201L
(dp597
g8
V1171
p598
sg10
V8320 Lockwood Ridge Rd
p599
sg12
VLimited stock
p600
sg14
V34243
p601
sg16
VSarasota
p602
sg3
I2
sg5
S'Thursday, 10. May 2012 09:07PM'
p603
sg4
L201L
ssL8395L
(dp604
g128
V1825
p605
sg130
VMontgomery
p606
sg132
VLimited Availability
p607
sg134
S'Thursday, 10. May 2012 01:04PM'
p608
sg136
I2
sg137
L8395L
ssL1232L
(dp609
g8
V3370
p610
sg10
V508 10Th St E
p611
sg12
VLimited stock
p612
sg14
V34221
p613
sg16
VPalmetto
p614
sg3
I2
sg5
S'Thursday, 10. May 2012 09:07PM'
p615
sg4
L1232L
ssL3281L
(dp616
g8
V767
p617
sg10
V2767 W Us Highway 90
p618
sg12
VLimited stock
p619
sg14
V32055
p620
sg16
VLake City
p621
sg3
I2
sg5
S'Thursday, 10. May 2012 09:07PM'
p622
sg4
L3281L
ssL2770L
(dp623
g8
V988
p624
sg10
V1575 Land O Lakes Blvd
p625
sg12
VIn stock
p626
sg14
V33549
p627
sg16
VLutz
p628
sg3
I3
sg5
S'Thursday, 10. May 2012 09:07PM'
p629
sg4
L2770L
ssL1256L
(dp630
g8
V1482
p631
sg10
V7011 W Waters Ave
p632
sg12
VIn stock
p633
sg14
V33634
p634
sg16
VTampa
p635
sg3
I3
sg5
S'Thursday, 10. May 2012 09:07PM'
p636
sg4
L1256L
ssL724L
(dp637
g8
V800
p638
sg10
V2501 Citrus Blvd
p639
sg12
VLimited stock
p640
sg14
V34748
p641
sg16
VLeesburg
p642
sg3
I2
sg5
S'Thursday, 10. May 2012 09:07PM'
p643
sg4
L724L
ssL2261L
(dp644
g8
V974
p645
sg10
V845 Palm Bay Rd Ne
p646
sg12
VLimited stock
p647
sg14
V32904
p648
sg16
VWest Melbourne
p649
sg3
I2
sg5
S'Thursday, 10. May 2012 09:07PM'
p650
sg4
L2261L
ssL2262L
(dp651
g8
V973
p652
sg10
V5100 Okeechobee Rd
p653
sg12
VIn stock
p654
sg14
V34947
p655
sg16
VFort Pierce
p656
sg3
I3
sg5
S'Thursday, 10. May 2012 09:07PM'
p657
sg4
L2262L
ssL3287L
(dp658
g8
V5894
p659
sg10
V5511 Deep Lake Rd
p660
sg12
VLimited stock
p661
sg14
V32765
p662
sg16
VOviedo
p663
sg3
I2
sg5
S'Thursday, 10. May 2012 09:07PM'
p664
sg4
L3287L
ssL3291L
(dp665
g8
V3887
p666
sg10
V1041 Us Highway 27 N
p667
sg12
VLimited stock
p668
sg14
V33825
p669
sg16
VAvon Park
p670
sg3
I2
sg5
S'Thursday, 10. May 2012 09:07PM'
p671
sg4
L3291L
ssL8058L
(dp672
g128
V1274
p673
sg130
VDaphne
p674
sg132
VAvailable
p675
sg134
S'Thursday, 10. May 2012 01:04PM'
p676
sg136
I3
sg137
L8058L
ssL735L
(dp677
g8
V2843
p678
sg10
V17961 S Us Highway 441
p679
sg12
VLimited stock
p680
sg14
V34491
p681
sg16
VSummerfield
p682
sg3
I2
sg5
S'Thursday, 10. May 2012 09:07PM'
p683
sg4
L735L
ssL1147L
(dp684
g8
V2533
p685
sg10
V3767 Gulf Breeze Pkwy
p686
sg12
VLimited stock
p687
sg14
V32563
p688
sg16
VGulf Breeze
p689
sg3
I2
sg5
S'Thursday, 10. May 2012 09:07PM'
p690
sg4
L1147L
ssL3451L
(dp691
g8
V5326
p692
sg10
V9570 Sw Highway 200
p693
sg12
VIn stock
p694
sg14
V34481
p695
sg16
VOcala
p696
sg3
I3
sg5
S'Thursday, 10. May 2012 09:07PM'
p697
sg4
L3451L
ssL3302L
(dp698
g8
V2814
p699
sg10
V9300 Nw 77Th Ave
p700
sg12
VOut of stock
p701
sg14
V33016
p702
sg16
VHialeah
p703
sg3
I0
sg5
S'Thursday, 10. May 2012 09:07PM'
p704
sg4
L3302L
ssL1745L
(dp705
g8
V919
p706
sg10
V748 Beal Pkwy Nw
p707
sg12
VLimited stock
p708
sg14
V32547
p709
sg16
VFort Walton Beach
p710
sg3
I2
sg5
S'Thursday, 10. May 2012 09:07PM'
p711
sg4
L1745L
ssL2280L
(dp712
g8
V2114
p713
sg10
V1621 Main St
p714
sg12
VLimited stock
p715
sg14
V32428
p716
sg16
VChipley
p717
sg3
I2
sg5
S'Thursday, 10. May 2012 09:07PM'
p718
sg4
L2280L
ssL2795L
(dp719
g3
Nsg4
L2795L
sg5
S'Thursday, 10. May 2012 09:07PM'
p720
ssL2258L
(dp721
g8
V977
p722
sg10
V1385 Amelia Plz
p723
sg12
VIn stock
p724
sg14
V32034
p725
sg16
VFernandina Beach
p726
sg3
I3
sg5
S'Thursday, 10. May 2012 09:07PM'
p727
sg4
L2258L
ssL1262L
(dp728
g8
V3309
p729
sg10
V4250 Phillips Hwy
p730
sg12
VLimited stock
p731
sg14
V32207
p732
sg16
VJacksonville
p733
sg3
I2
sg5
S'Thursday, 10. May 2012 09:07PM'
p734
sg4
L1262L
ssL3453L
(dp735
g8
V5325
p736
sg10
V5555 W Atlantic Blvd
p737
sg12
VLimited stock
p738
sg14
V33063
p739
sg16
VMargate
p740
sg3
I2
sg5
S'Thursday, 10. May 2012 09:07PM'
p741
sg4
L3453L
ssL240L
(dp742
g8
V623
p743
sg10
V545 Pine Island Rd
p744
sg12
VLimited stock
p745
sg14
V33903
p746
sg16
VNorth Fort Myers
p747
sg3
I2
sg5
S'Thursday, 10. May 2012 09:07PM'
p748
sg4
L240L
ssL3795L
(dp749
g8
V3307
p750
sg10
V35 Mike Stewart
p751
sg12
VLimited stock
p752
sg14
V32327
p753
sg16
VCrawfordville
p754
sg3
I2
sg5
S'Thursday, 10. May 2012 09:07PM'
p755
sg4
L3795L
ssL3319L
(dp756
g8
V3625
p757
sg10
V3001 North State Road #7
p758
sg12
VIn stock
p759
sg14
V33313
p760
sg16
VLauderdale Lakes
p761
sg3
I3
sg5
S'Thursday, 10. May 2012 09:07PM'
p762
sg4
L3319L
ssL248L
(dp763
g8
V1223
p764
sg10
V5500 Thomasville Rd
p765
sg12
VLimited stock
p766
sg14
V32312
p767
sg16
VTallahassee
p768
sg3
I2
sg5
S'Thursday, 10. May 2012 09:07PM'
p769
sg4
L248L
ssL3111L
(dp770
g8
V942
p771
sg10
V10500 W Colonial Dr
p772
sg12
VLimited stock
p773
sg14
V34761
p774
sg16
VOcoee
p775
sg3
I2
sg5
S'Thursday, 10. May 2012 09:07PM'
p776
sg4
L3111L
ssL3455L
(dp777
g3
Nsg4
L3455L
sg5
S'Thursday, 10. May 2012 09:07PM'
p778
ssL1322L
(dp779
g8
V1224
p780
sg10
V2650 Creighton Rd
p781
sg12
VIn stock
p782
sg14
V32504
p783
sg16
VPensacola
p784
sg3
I3
sg5
S'Thursday, 10. May 2012 09:07PM'
p785
sg4
L1322L
ssL3839L
(dp786
g3
Nsg4
L3839L
sg5
S'Thursday, 10. May 2012 09:07PM'
p787
ssL257L
(dp788
g3
Nsg4
L257L
sg5
S'Thursday, 10. May 2012 09:07PM'
p789
ssL259L
(dp790
g3
Nsg4
L259L
sg5
S'Thursday, 10. May 2012 09:07PM'
p791
ssL2309L
(dp792
g3
Nsg4
L2309L
sg5
S'Thursday, 10. May 2012 09:07PM'
p793
ssL3846L
(dp794
g8
V1362
p795
sg10
V15017 Emerald Coast Pkwy
p796
sg12
VLimited stock
p797
sg14
V32541
p798
sg16
VDestin
p799
sg3
I2
sg5
S'Thursday, 10. May 2012 09:07PM'
p800
sg4
L3846L
ssL265L
(dp801
g8
V1375
p802
sg10
V2255 Highway 71
p803
sg12
VLimited stock
p804
sg14
V32448
p805
sg16
VMarianna
p806
sg3
I2
sg5
S'Thursday, 10. May 2012 09:07PM'
p807
sg4
L265L
ssL266L
(dp808
g8
V1374
p809
sg10
V200 S State Road 434
p810
sg12
VLimited stock
p811
sg14
V32714
p812
sg16
VAltamonte Springs
p813
sg3
I2
sg5
S'Thursday, 10. May 2012 09:07PM'
p814
sg4
L266L
ssL2830L
(dp815
g8
V959
p816
sg10
V2163 W C 48
p817
sg12
VLimited stock
p818
sg14
V33513
p819
sg16
VBushnell
p820
sg3
I2
sg5
S'Thursday, 10. May 2012 09:07PM'
p821
sg4
L2830L
ssL2831L
(dp822
g8
V4690
p823
sg10
V201 34Th St N
p824
sg12
VLimited stock
p825
sg14
V33713
p826
sg16
VSt Petersburg
p827
sg3
I2
sg5
S'Thursday, 10. May 2012 09:07PM'
p828
sg4
L2831L
ssL1297L
(dp829
g8
V1134
p830
sg10
V1226 Freeport Road
p831
sg12
VLimited stock
p832
sg14
V32433
p833
sg16
VDe Funiak Springs
p834
sg3
I2
sg5
S'Thursday, 10. May 2012 09:07PM'
p835
sg4
L1297L
ssL2773L
(dp836
g3
Nsg4
L2773L
sg5
S'Thursday, 10. May 2012 09:07PM'
p837
ssL3374L
(dp838
g8
V990
p839
sg10
V4965 Highway 90
p840
sg12
VLimited stock
p841
sg14
V32571
p842
sg16
VMilton
p843
sg3
I2
sg5
S'Thursday, 10. May 2012 09:07PM'
p844
sg4
L3374L
ssL3353L
(dp845
g8
V1297
p846
sg10
V2201 N Young Blvd
p847
sg12
VIn stock
p848
sg14
V32626
p849
sg16
VChiefland
p850
sg3
I3
sg5
S'Thursday, 10. May 2012 09:07PM'
p851
sg4
L3353L
ssL3354L
(dp852
g8
V2484
p853
sg10
V1005 W Sugarland Hwy
p854
sg12
VLimited stock
p855
sg14
V33440
p856
sg16
VClewiston
p857
sg3
I2
sg5
S'Thursday, 10. May 2012 09:07PM'
p858
sg4
L3354L
ssL1820L
(dp859
g8
V759
p860
sg10
V1480 Us Highway 17 N
p861
sg12
VIn stock
p862
sg14
V33873
p863
sg16
VWauchula
p864
sg3
I3
sg5
S'Thursday, 10. May 2012 09:07PM'
p865
sg4
L1820L
ssL2845L
(dp866
g8
V956
p867
sg10
V1001 E Eau Gallie Blvd
p868
sg12
VIn stock
p869
sg14
V32937
p870
sg16
VIndian Harbour Beac
p871
sg3
I3
sg5
S'Thursday, 10. May 2012 09:07PM'
p872
sg4
L2845L
ssL800L
(dp873
g8
V538
p874
sg10
V2649 Nw 13Th St
p875
sg12
VLimited stock
p876
sg14
V32609
p877
sg16
VGainesville
p878
sg3
I2
sg5
S'Thursday, 10. May 2012 09:07PM'
p879
sg4
L800L
ssL1314L
(dp880
g8
V1004
p881
sg10
V5315 Cortez Rd W
p882
sg12
VLimited stock
p883
sg14
V34210
p884
sg16
VBradenton
p885
sg3
I2
sg5
S'Thursday, 10. May 2012 09:07PM'
p886
sg4
L1314L
ssL219L
(dp887
g8
V1283
p888
sg10
V14500 Us Highway 301 S
p889
sg12
VLimited stock
p890
sg14
V32091
p891
sg16
VStarke
p892
sg3
I2
sg5
S'Thursday, 10. May 2012 09:07PM'
p893
sg4
L219L
ssL3367L
(dp894
g3
Nsg4
L3367L
sg5
S'Thursday, 10. May 2012 09:07PM'
p895
ssL2344L
(dp896
g8
V5218
p897
sg10
V3501 34Th St S
p898
sg12
VOut of stock
p899
sg14
V33711
p900
sg16
VSt Petersburg
p901
sg3
I0
sg5
S'Thursday, 10. May 2012 09:07PM'
p902
sg4
L2344L
ssL1321L
(dp903
g8
V1225
p904
sg10
V899 Blanding Blvd
p905
sg12
VLimited stock
p906
sg14
V32065
p907
sg16
VOrange Park
p908
sg3
I2
sg5
S'Thursday, 10. May 2012 09:07PM'
p909
sg4
L1321L
ssL9002L
(dp910
g128
V2503
p911
sg130
VHoover West
p912
sg132
VAvailable
p913
sg134
S'Thursday, 10. May 2012 01:04PM'
p914
sg136
I3
sg137
L9002L
ssL3371L
(dp915
g8
V994
p916
sg10
V8745 State Road 54
p917
sg12
VIn stock
p918
sg14
V34655
p919
sg16
VNew Port Richey
p920
sg3
I3
sg5
S'Thursday, 10. May 2012 09:07PM'
p921
sg4
L3371L
ssL1324L
(dp922
g8
V1222
p923
sg10
V8970 Pensacola Blvd
p924
sg12
VOut of stock
p925
sg14
V32534
p926
sg16
VPensacola
p927
sg3
I0
sg5
S'Thursday, 10. May 2012 09:07PM'
p928
sg4
L1324L
ssL1326L
(dp929
g8
V1220
p930
sg10
V2500 S Kirkman Rd
p931
sg12
VLimited stock
p932
sg14
V32811
p933
sg16
VOrlando
p934
sg3
I2
sg5
S'Thursday, 10. May 2012 09:07PM'
p935
sg4
L1326L
ssL2352L
(dp936
g8
V771
p937
sg10
V1500 E Merritt Island Cswy
p938
sg12
VIn stock
p939
sg14
V32952
p940
sg16
VMerritt Island
p941
sg3
I3
sg5
S'Thursday, 10. May 2012 09:07PM'
p942
sg4
L2352L
ssL817L
(dp943
g3
Nsg4
L817L
sg5
S'Thursday, 10. May 2012 09:07PM'
p944
ssL1405L
(dp945
g8
V5932
p946
sg10
V12800 Pines Blvd
p947
sg12
VLimited stock
p948
sg14
V33027
p949
sg16
VPembroke Pines
p950
sg3
I2
sg5
S'Thursday, 10. May 2012 09:07PM'
p951
sg4
L1405L
ssL2356L
(dp952
g8
V779
p953
sg10
V3501 S Florida Ave
p954
sg12
VLimited stock
p955
sg14
V33803
p956
sg16
VLakeland
p957
sg3
I2
sg5
S'Thursday, 10. May 2012 09:07PM'
p958
sg4
L2356L
ssL2357L
(dp959
g8
V778
p960
sg10
V5001 Taylor Rd
p961
sg12
VLimited stock
p962
sg14
V33950
p963
sg16
VPunta Gorda
p964
sg3
I2
sg5
S'Thursday, 10. May 2012 09:07PM'
p965
sg4
L2357L
ssL822L
(dp966
g8
V1398
p967
sg10
V4545 Hypoluxo Rd
p968
sg12
VLimited stock
p969
sg14
V33463
p970
sg16
VLake Worth
p971
sg3
I2
sg5
S'Thursday, 10. May 2012 09:07PM'
p972
sg4
L822L
ssL1338L
(dp973
g8
V2881
p974
sg10
V1471 E Osceola Pkwy
p975
sg12
VLimited stock
p976
sg14
V34744
p977
sg16
VKissimmee
p978
sg3
I2
sg5
S'Thursday, 10. May 2012 09:07PM'
p979
sg4
L1338L
ssL315L
(dp980
g3
Nsg4
L315L
sg5
S'Thursday, 10. May 2012 09:07PM'
p981
ssL316L
(dp982
g8
V5845
p983
sg10
V1300 John Sims Pkwy E
p984
sg12
VLimited stock
p985
sg14
V32578
p986
sg16
VNiceville
p987
sg3
I2
sg5
S'Thursday, 10. May 2012 09:07PM'
p988
sg4
L316L
ssL829L
(dp989
g8
V1391
p990
sg10
V1101 Beville Rd
p991
sg12
VLimited stock
p992
sg14
V32119
p993
sg16
VDaytona Beach
p994
sg3
I2
sg5
S'Thursday, 10. May 2012 09:07PM'
p995
sg4
L829L
ssL830L
(dp996
g8
V1390
p997
sg10
V8001 Us Highway 19 N
p998
sg12
VLimited stock
p999
sg14
V33781
p1000
sg16
VPinellas Park
p1001
sg3
I2
sg5
S'Thursday, 10. May 2012 09:07PM'
p1002
sg4
L830L
ssL2101L
(dp1003
g8
V613
p1004
sg10
V1521 W Granada Blvd
p1005
sg12
VLimited stock
p1006
sg14
V32174
p1007
sg16
VOrmond Beach
p1008
sg3
I2
sg5
S'Thursday, 10. May 2012 09:07PM'
p1009
sg4
L2101L
ssL480L
(dp1010
g8
V769
p1011
sg10
V4150 Tamiami Trl S
p1012
sg12
VLimited stock
p1013
sg14
V34293
p1014
sg16
VVenice
p1015
sg3
I2
sg5
S'Thursday, 10. May 2012 09:07PM'
p1016
sg4
L480L
ssL2943L
(dp1017
g8
V1082
p1018
sg10
V10991 San Jose Blvd Ste 1
p1019
sg12
VLimited stock
p1020
sg14
V32223
p1021
sg16
VJacksonville
p1022
sg3
I2
sg5
S'Thursday, 10. May 2012 09:07PM'
p1023
sg4
L2943L
ssL1886L
(dp1024
g8
V1119
p1025
sg10
V3451 Tamiami Trl E
p1026
sg12
VLimited stock
p1027
sg14
V34112
p1028
sg16
VNaples
p1029
sg3
I2
sg5
S'Thursday, 10. May 2012 09:07PM'
p1030
sg4
L1886L
ssL3398L
(dp1031
g8
V5250
p1032
sg10
V904 Cypress Pkwy
p1033
sg12
VLimited stock
p1034
sg14
V34759
p1035
sg16
VKissimmee
p1036
sg3
I2
sg5
S'Thursday, 10. May 2012 09:07PM'
p1037
sg4
L3398L
ssL1864L
(dp1038
g8
V1207
p1039
sg10
V725 No. Tyndall Pkwy
p1040
sg12
VLimited stock
p1041
sg14
V32404
p1042
sg16
VCallaway
p1043
sg3
I2
sg5
S'Thursday, 10. May 2012 09:07PM'
p1044
sg4
L1864L
ssL2379L
(dp1045
g3
Nsg4
L2379L
sg5
S'Thursday, 10. May 2012 09:07PM'
p1046
ssL1868L
(dp1047
g8
V1203
p1048
sg10
V4928 State Road 674
p1049
sg12
VIn stock
p1050
sg14
V33598
p1051
sg16
VWimauma
p1052
sg3
I3
sg5
S'Thursday, 10. May 2012 09:07PM'
p1053
sg4
L1868L
ssL1506L
(dp1054
g8
V3474
p1055
sg10
V6225 E State Road 64
p1056
sg12
VIn stock
p1057
sg14
V34208
p1058
sg16
VBradenton
p1059
sg3
I3
sg5
S'Thursday, 10. May 2012 09:07PM'
p1060
sg4
L1506L
ssL2894L
(dp1061
g8
V2176
p1062
sg10
V2144 W Indiantown Rd
p1063
sg12
VLimited stock
p1064
sg14
V33458
p1065
sg16
VJupiter
p1066
sg3
I2
sg5
S'Thursday, 10. May 2012 09:07PM'
p1067
sg4
L2894L
ssL2383L
(dp1068
g8
V1680
p1069
sg10
V15885 Sw 88Th St
p1070
sg12
VLimited stock
p1071
sg14
V33196
p1072
sg16
VKendall
p1073
sg3
I2
sg5
S'Thursday, 10. May 2012 09:07PM'
p1074
sg4
L2383L
ssL3410L
(dp1075
g8
V2796
p1076
sg10
V3801 Tampa Rd
p1077
sg12
VLimited stock
p1078
sg14
V34677
p1079
sg16
VOldsmar
p1080
sg3
I2
sg5
S'Thursday, 10. May 2012 09:07PM'
p1081
sg4
L3410L
ssL3415L
(dp1082
g8
V1029
p1083
sg10
V3826 S Suncoast Blvd
p1084
sg12
VIn stock
p1085
sg14
V34448
p1086
sg16
VHomosassa
p1087
sg3
I3
sg5
S'Thursday, 10. May 2012 09:07PM'
p1088
sg4
L3415L
ssL3416L
(dp1089
g8
V5420
p1090
sg10
V3250 Vineland Rd
p1091
sg12
VLimited stock
p1092
sg14
V34746
p1093
sg16
VKissimmee
p1094
sg3
I2
sg5
S'Thursday, 10. May 2012 09:07PM'
p1095
sg4
L3416L
ssL1881L
(dp1096
g8
V1444
p1097
sg10
V9890 Hutchinson Park Dr
p1098
sg12
VLimited stock
p1099
sg14
V32225
p1100
sg16
VJacksonville
p1101
sg3
I2
sg5
S'Thursday, 10. May 2012 09:07PM'
p1102
sg4
L1881L
ssL347L
(dp1103
g8
V2459
p1104
sg10
V4381 Cattlemen Rd
p1105
sg12
VLimited stock
p1106
sg14
V34233
p1107
sg16
VSarasota
p1108
sg3
I2
sg5
S'Thursday, 10. May 2012 09:07PM'
p1109
sg4
L347L
ssL1373L
(dp1110
g8
V929
p1111
sg10
V10855 So. Us Hwy #1
p1112
sg12
VLimited stock
p1113
sg14
V34952
p1114
sg16
VPort St Lucie
p1115
sg3
I2
sg5
S'Thursday, 10. May 2012 09:07PM'
p1116
sg4
L1373L
ssL199L
(dp1117
g8
V1173
p1118
sg10
V8808 Beach Blvd
p1119
sg12
VLimited stock
p1120
sg14
V32216
p1121
sg16
VJacksonville
p1122
sg3
I2
sg5
S'Thursday, 10. May 2012 09:07PM'
p1123
sg4
L199L
ssL2400L
(dp1124
g8
V666
p1125
sg10
V3525 Us Highway 27 N
p1126
sg12
VLimited stock
p1127
sg14
V33870
p1128
sg16
VSebring
p1129
sg3
I2
sg5
S'Thursday, 10. May 2012 09:07PM'
p1130
sg4
L2400L
ssL1205L
(dp1131
g8
V931
p1132
sg10
V5555 20Th St
p1133
sg12
VOut of stock
p1134
sg14
V32966
p1135
sg16
VVero Beach
p1136
sg3
I0
sg5
S'Thursday, 10. May 2012 09:07PM'
p1137
sg4
L1205L
ssL2875L
(dp1138
g8
V4588
p1139
sg10
V3101 W Princeton St
p1140
sg12
VLimited stock
p1141
sg14
V32808
p1142
sg16
VOrlando
p1143
sg3
I2
sg5
S'Thursday, 10. May 2012 09:07PM'
p1144
sg4
L2875L
ssL2552L
(dp1145
g8
V967
p1146
sg10
V1485 Commercial Way
p1147
sg12
VLimited stock
p1148
sg14
V34606
p1149
sg16
VSpring Hill
p1150
sg3
I2
sg5
S'Thursday, 10. May 2012 09:07PM'
p1151
sg4
L2552L
ssL9063L
(dp1152
g128
V2816
p1153
sg130
VMadison
p1154
sg132
VAvailable
p1155
sg134
S'Thursday, 10. May 2012 01:04PM'
p1156
sg136
I3
sg137
L9063L
ssL360L
(dp1157
g8
V174
p1158
sg10
V2700 Clearlake Rd
p1159
sg12
VLimited stock
p1160
sg14
V32922
p1161
sg16
VCocoa
p1162
sg3
I2
sg5
S'Thursday, 10. May 2012 09:07PM'
p1163
sg4
L360L
ssL2921L
(dp1164
g8
V5301
p1165
sg10
V4375 Belvedere Rd
p1166
sg12
VLimited stock
p1167
sg14
V33406
p1168
sg16
VWest Palm Beach
p1169
sg3
I2
sg5
S'Thursday, 10. May 2012 09:07PM'
p1170
sg4
L2921L
ssL3441L
(dp1171
g3
Nsg4
L3441L
sg5
S'Thursday, 10. May 2012 09:07PM'
p1172
ssL147L
(dp1173
g8
V1996
p1174
sg10
V2551 E Hallandale Beach Blvd
p1175
sg12
VLimited stock
p1176
sg14
V33009
p1177
sg16
VHallandale Beach
p1178
sg3
I2
sg5
S'Thursday, 10. May 2012 09:07PM'
p1179
sg4
L147L
ssL2420L
(dp1180
g8
V1916
p1181
sg10
V5571 W Hillsboro Blvd
p1182
sg12
VIn stock
p1183
sg14
V33073
p1184
sg16
VCoconut Creek
p1185
sg3
I3
sg5
S'Thursday, 10. May 2012 09:07PM'
p1186
sg4
L2420L
ssL967L
(dp1187
g8
V817
p1188
sg10
V4444 W Vine St
p1189
sg12
VLimited stock
p1190
sg14
V34746
p1191
sg16
VKissimmee
p1192
sg3
I2
sg5
S'Thursday, 10. May 2012 09:07PM'
p1193
sg4
L967L
ssL933L
(dp1194
g8
V3782
p1195
sg10
V5991 New Goldenrod Road
p1196
sg12
VLimited stock
p1197
sg14
V32822
p1198
sg16
VOrlando
p1199
sg3
I2
sg5
S'Thursday, 10. May 2012 09:07PM'
p1200
sg4
L933L
ssL378L
(dp1201
g8
V1501
p1202
sg10
V14941 N Dale Mabry Hwy
p1203
sg12
VLimited stock
p1204
sg14
V33618
p1205
sg16
VTampa
p1206
sg3
I2
sg5
S'Thursday, 10. May 2012 09:07PM'
p1207
sg4
L378L
ssL2939L
(dp1208
g8
V1086
p1209
sg10
V4400 13Th St
p1210
sg12
VLimited stock
p1211
sg14
V34769
p1212
sg16
VSaint Cloud
p1213
sg3
I2
sg5
S'Thursday, 10. May 2012 09:07PM'
p1214
sg4
L2939L
ssL2940L
(dp1215
g8
V1085
p1216
sg10
V8701 Us Highway 19
p1217
sg12
VLimited stock
p1218
sg14
V34668
p1219
sg16
VPort Richey
p1220
sg3
I2
sg5
S'Thursday, 10. May 2012 09:07PM'
p1221
sg4
L2940L
ssL2941L
(dp1222
g8
V1084
p1223
sg10
V3838 S Semoran Blvd
p1224
sg12
VIn stock
p1225
sg14
V32822
p1226
sg16
VOrlando
p1227
sg3
I3
sg5
S'Thursday, 10. May 2012 09:07PM'
p1228
sg4
L2941L
ssL2942L
(dp1229
g8
V1083
p1230
sg10
V6830 Normandy Blvd
p1231
sg12
VIn stock
p1232
sg14
V32205
p1233
sg16
VJacksonville
p1234
sg3
I3
sg5
S'Thursday, 10. May 2012 09:07PM'
p1235
sg4
L2942L
ssL1919L
(dp1236
g3
Nsg4
L1919L
sg5
S'Thursday, 10. May 2012 09:07PM'
p1237
ssL2944L
(dp1238
g8
V1081
p1239
sg10
V3570 Sw Archer Rd
p1240
sg12
VLimited stock
p1241
sg14
V32608
p1242
sg16
VGainesville
p1243
sg3
I2
sg5
S'Thursday, 10. May 2012 09:07PM'
p1244
sg4
L2944L
ssL385L
(dp1245
g8
V3526
p1246
sg10
V7305 Broad St
p1247
sg12
VLimited stock
p1248
sg14
V34601
p1249
sg16
VBrooksville
p1250
sg3
I2
sg5
S'Thursday, 10. May 2012 09:07PM'
p1251
sg4
L385L
ssL386L
(dp1252
g8
V3527
p1253
sg10
V1675 Nw Saint Lucie West Blvd
p1254
sg12
VLimited stock
p1255
sg14
V34986
p1256
sg16
VPort Saint Lucie
p1257
sg3
I2
sg5
S'Thursday, 10. May 2012 09:07PM'
p1258
sg4
L386L
ssL2441L
(dp1259
g3
Nsg4
L2441L
sg5
S'Thursday, 10. May 2012 09:07PM'
p1260
ssL1930L
(dp1261
g8
V5911
p1262
sg10
V3625 S Federal Hwy
p1263
sg12
VLimited stock
p1264
sg14
V33435
p1265
sg16
VBoynton Beach
p1266
sg3
I2
sg5
S'Thursday, 10. May 2012 09:07PM'
p1267
sg4
L1930L
ssL908L
(dp1268
g8
V2727
p1269
sg10
V33501 S Dixie Hwy
p1270
sg12
VIn stock
p1271
sg14
V33034
p1272
sg16
VFlorida City
p1273
sg3
I3
sg5
S'Thursday, 10. May 2012 09:07PM'
p1274
sg4
L908L
ssL1735L
(dp1275
g8
V1851
p1276
sg10
V7300 W Mcnab Rd
p1277
sg12
VLimited stock
p1278
sg14
V33068
p1279
sg16
VNorth Lauderdale
p1280
sg3
I2
sg5
S'Thursday, 10. May 2012 09:07PM'
p1281
sg4
L1735L
ssL1261L
(dp1282
g8
V3308
p1283
sg10
V1580 Branan Field Rd
p1284
sg12
VIn stock
p1285
sg14
V32068
p1286
sg16
VMiddleburg
p1287
sg3
I3
sg5
S'Thursday, 10. May 2012 09:07PM'
p1288
sg4
L1261L
ssL3472L
(dp1289
g8
V579
p1290
sg10
V2355 Us Highway 1 S
p1291
sg12
VLimited stock
p1292
sg14
V32086
p1293
sg16
VSt Augustine
p1294
sg3
I2
sg5
S'Thursday, 10. May 2012 09:07PM'
p1295
sg4
L3472L
ssL2962L
(dp1296
g8
V3387
p1297
sg10
V17000 Tamiami Trl
p1298
sg12
VOut of stock
p1299
sg14
V34287
p1300
sg16
VNorth Port
p1301
sg3
I0
sg5
S'Thursday, 10. May 2012 09:07PM'
p1302
sg4
L2962L
ssL835L
(dp1303
g3
Nsg4
L835L
sg5
S'Thursday, 10. May 2012 09:07PM'
p1304
ssL404L
(dp1305
g8
V2695
p1306
sg10
V1450 Johns Lake Rd
p1307
sg12
VOut of stock
p1308
sg14
V34711
p1309
sg16
VClermont
p1310
sg3
I0
sg5
S'Thursday, 10. May 2012 09:07PM'
p1311
sg4
L404L
ssL2286L
(dp1312
g8
V2626
p1313
sg10
V6868 Us Highway 129
p1314
sg12
VLimited stock
p1315
sg14
V32060
p1316
sg16
VLive Oak
p1317
sg3
I2
sg5
S'Thursday, 10. May 2012 09:07PM'
p1318
sg4
L2286L
ssL2611L
(dp1319
g8
V890
p1320
sg10
V11250 E Colonial Dr
p1321
sg12
VLimited stock
p1322
sg14
V32817
p1323
sg16
VOrlando
p1324
sg3
I2
sg5
S'Thursday, 10. May 2012 09:07PM'
p1325
sg4
L2611L
ssL1599L
(dp1326
g8
V1219
p1327
sg10
V12100 Lem Turner Rd
p1328
sg12
VLimited stock
p1329
sg14
V32218
p1330
sg16
VJacksonville
p1331
sg3
I2
sg5
S'Thursday, 10. May 2012 09:07PM'
p1332
sg4
L1599L
ssL922L
(dp1333
g8
V1712
p1334
sg10
V1111 Missouri Ave N
p1335
sg12
VLimited stock
p1336
sg14
V33770
p1337
sg16
VLargo
p1338
sg3
I2
sg5
S'Thursday, 10. May 2012 09:07PM'
p1339
sg4
L922L
ssL2287L
(dp1340
g8
V2627
p1341
sg10
V2701 E Fletcher Ave
p1342
sg12
VLimited stock
p1343
sg14
V33612
p1344
sg16
VTampa
p1345
sg3
I2
sg5
S'Thursday, 10. May 2012 09:07PM'
p1346
sg4
L2287L
ssL2974L
(dp1347
g8
V1408
p1348
sg10
V4400 W Tennessee St
p1349
sg12
VLimited stock
p1350
sg14
V32304
p1351
sg16
VTallahassee
p1352
sg3
I2
sg5
S'Thursday, 10. May 2012 09:07PM'
p1353
sg4
L2974L
ssL8688L
(dp1354
g128
V2153
p1355
sg130
VOxford
p1356
sg132
VLimited Availability
p1357
sg134
S'Thursday, 10. May 2012 01:04PM'
p1358
sg136
I2
sg137
L8688L
ssL2466L
(dp1359
g3
Nsg4
L2466L
sg5
S'Thursday, 10. May 2012 09:07PM'
p1360
ssL1350L
(dp1361
g8
V3877
p1362
sg10
V1800 Ne 12Th Ave
p1363
sg12
VLimited stock
p1364
sg14
V32641
p1365
sg16
VGainesville
p1366
sg3
I2
sg5
S'Thursday, 10. May 2012 09:07PM'
p1367
sg4
L1350L
ssL8102L
(dp1368
g128
V1322
p1369
sg130
VFlorence
p1370
sg132
VLimited Availability
p1371
sg134
S'Thursday, 10. May 2012 01:04PM'
p1372
sg136
I2
sg137
L8102L
ssL1959L
(dp1373
g8
V2387
p1374
sg10
V11110 Causeway Blvd
p1375
sg12
VIn stock
p1376
sg14
V33511
p1377
sg16
VBrandon
p1378
sg3
I3
sg5
S'Thursday, 10. May 2012 09:07PM'
p1379
sg4
L1959L
ssL940L
(dp1380
g8
V3785
p1381
sg10
V501 N Navy Blvd
p1382
sg12
VLimited stock
p1383
sg14
V32507
p1384
sg16
VPensacola
p1385
sg3
I2
sg5
S'Thursday, 10. May 2012 09:07PM'
p1386
sg4
L940L
ssL8625L
(dp1387
g128
V2084
p1388
sg130
VDecatur
p1389
sg132
VLimited Availability
p1390
sg134
S'Thursday, 10. May 2012 01:04PM'
p1391
sg136
I2
sg137
L8625L
ssL434L
(dp1392
g8
V2091
p1393
sg10
V8651 Nw 13Th Ter
p1394
sg12
VOut of stock
p1395
sg14
V33126
p1396
sg16
VDoral
p1397
sg3
I0
sg5
S'Thursday, 10. May 2012 09:07PM'
p1398
sg4
L434L
ssL1566L
(dp1399
g8
V1589
p1400
sg10
V16205 S Military Trl
p1401
sg12
VOut of stock
p1402
sg14
V33484
p1403
sg16
VDelray Beach
p1404
sg3
I0
sg5
S'Thursday, 10. May 2012 09:07PM'
p1405
sg4
L1566L
ssL8124L
(dp1406
g128
V1346
p1407
sg130
VHuntsville West
p1408
sg132
VAvailable
p1409
sg134
S'Thursday, 10. May 2012 01:04PM'
p1410
sg136
I3
sg137
L8124L
ssL1981L
(dp1411
g8
V4260
p1412
sg10
V1850 Sw Gatlin Blvd
p1413
sg12
VLimited stock
p1414
sg14
V34953
p1415
sg16
VPort St Lucie
p1416
sg3
I2
sg5
S'Thursday, 10. May 2012 09:07PM'
p1417
sg4
L1981L
ssL958L
(dp1418
g8
V819
p1419
sg10
V1619 Del Prado Blvd S
p1420
sg12
VLimited stock
p1421
sg14
V33990
p1422
sg16
VCape Coral
p1423
sg3
I2
sg5
S'Thursday, 10. May 2012 09:07PM'
p1424
sg4
L958L
ssL961L
(dp1425
g8
V811
p1426
sg10
V2725 Se Highway 70
p1427
sg12
VLimited stock
p1428
sg14
V34266
p1429
sg16
VArcadia
p1430
sg3
I2
sg5
S'Thursday, 10. May 2012 09:07PM'
p1431
sg4
L961L
ssL964L
(dp1432
g8
V814
p1433
sg10
V2101 S Parrott Ave
p1434
sg12
VIn stock
p1435
sg14
V34974
p1436
sg16
VOkeechobee
p1437
sg3
I3
sg5
S'Thursday, 10. May 2012 09:07PM'
p1438
sg4
L964L
ssL7623L
(dp1439
g136
Nsg137
L7623L
sg134
S'Thursday, 10. May 2012 01:04PM'
p1440
ssL969L
(dp1441
g8
V3207
p1442
sg10
V1601 Rinehart Rd
p1443
sg12
VIn stock
p1444
sg14
V32771
p1445
sg16
VSanford
p1446
sg3
I3
sg5
S'Thursday, 10. May 2012 09:07PM'
p1447
sg4
L969L
ssL1994L
(dp1448
g8
V1847
p1449
sg10
V4980 E Silver Springs Blvd
p1450
sg12
VLimited stock
p1451
sg14
V34470
p1452
sg16
VOcala
p1453
sg3
I2
sg5
S'Thursday, 10. May 2012 09:07PM'
p1454
sg4
L1994L
ssL1995L
(dp1455
g8
V4427
p1456
sg10
V3221 N Monroe St
p1457
sg12
VLimited stock
p1458
sg14
V32303
p1459
sg16
VTallahassee
p1460
sg3
I2
sg5
S'Thursday, 10. May 2012 09:07PM'
p1461
sg4
L1995L
ssL1996L
(dp1462
g8
V1845
p1463
sg10
V4700 S Flamingo Rd
p1464
sg12
VIn stock
p1465
sg14
V33330
p1466
sg16
VCooper City
p1467
sg3
I3
sg5
S'Thursday, 10. May 2012 09:07PM'
p1468
sg4
L1996L
ssL1997L
(dp1469
g3
Nsg4
L1997L
sg5
S'Thursday, 10. May 2012 09:07PM'
p1470
ssL1486L
(dp1471
g8
V5391
p1472
sg10
V5420 Juliet Blvd
p1473
sg12
VLimited stock
p1474
sg14
V34109
p1475
sg16
VNaples
p1476
sg3
I2
sg5
S'Thursday, 10. May 2012 09:07PM'
p1477
sg4
L1486L
ssL3766L
(dp1478
g8
V725
p1479
sg10
V36205 Us Highway 27
p1480
sg12
VLimited stock
p1481
sg14
V33844
p1482
sg16
VHaines City
p1483
sg3
I2
sg5
S'Thursday, 10. May 2012 09:07PM'
p1484
sg4
L3766L
ssL8145L
(dp1485
g128
V1367
p1486
sg130
VHuntsville South
p1487
sg132
VAvailable
p1488
sg134
S'Thursday, 10. May 2012 01:04PM'
p1489
sg136
I3
sg137
L8145L
ssL3026L
(dp1490
g8
V649
p1491
sg10
V3175 Cheney Hwy
p1492
sg12
VLimited stock
p1493
sg14
V32780
p1494
sg16
VTitusville
p1495
sg3
I2
sg5
S'Thursday, 10. May 2012 09:07PM'
p1496
sg4
L3026L
ssL3540L
(dp1497
g8
V1517
p1498
sg10
V300 W Copans Rd
p1499
sg12
VLimited stock
p1500
sg14
V33064
p1501
sg16
VPompano Beach
p1502
sg3
I2
sg5
S'Thursday, 10. May 2012 09:07PM'
p1503
sg4
L3540L
ssL3542L
(dp1504
g8
V1511
p1505
sg10
V1800 S University Dr
p1506
sg12
VIn stock
p1507
sg14
V33025
p1508
sg16
VMiramar
p1509
sg3
I3
sg5
S'Thursday, 10. May 2012 09:07PM'
p1510
sg4
L3542L
ssL2553L
(dp1511
g8
V960
p1512
sg10
V11012 No. Williams S
p1513
sg12
VLimited stock
p1514
sg14
V34432
p1515
sg16
VDunnellon
p1516
sg3
I2
sg5
S'Thursday, 10. May 2012 09:07PM'
p1517
sg4
L2553L
ssL3544L
(dp1518
g8
V1513
p1519
sg10
V35404 Us Highway 19 N
p1520
sg12
VLimited stock
p1521
sg14
V34684
p1522
sg16
VPalm Harbor
p1523
sg3
I2
sg5
S'Thursday, 10. May 2012 09:07PM'
p1524
sg4
L3544L
ssL8154L
(dp1525
g128
V1376
p1526
sg130
VMobile West
p1527
sg132
VLimited Availability
p1528
sg134
S'Thursday, 10. May 2012 01:04PM'
p1529
sg136
I2
sg137
L8154L
ssL3548L
(dp1530
g8
V5882
p1531
sg10
V2765 10Th Ave N
p1532
sg12
VLimited stock
p1533
sg14
V33461
p1534
sg16
VPalm Springs
p1535
sg3
I2
sg5
S'Thursday, 10. May 2012 09:07PM'
p1536
sg4
L3548L
ssL2556L
(dp1537
g8
V4681
p1538
sg10
V4302 W Gandy Blvd
p1539
sg12
VIn stock
p1540
sg14
V33611
p1541
sg16
VTampa
p1542
sg3
I3
sg5
S'Thursday, 10. May 2012 09:07PM'
p1543
sg4
L2556L
ssL165L
(dp1544
g8
V551
p1545
sg10
V1024 So. State Road
p1546
sg12
VLimited stock
p1547
sg14
V32177
p1548
sg16
VPalatka
p1549
sg3
I2
sg5
S'Thursday, 10. May 2012 09:07PM'
p1550
sg4
L165L
ssL1482L
(dp1551
g8
V925
p1552
sg10
V11720 E Dr Martin Luther King
p1553
sg12
VLimited stock
p1554
sg14
V33584
p1555
sg16
VSeffner
p1556
sg3
I2
sg5
S'Thursday, 10. May 2012 09:07PM'
p1557
sg4
L1482L
ssL993L
(dp1558
g8
V5266
p1559
sg10
V12610 Us Highway 19
p1560
sg12
VLimited stock
p1561
sg14
V34667
p1562
sg16
VHudson
p1563
sg3
I2
sg5
S'Thursday, 10. May 2012 09:07PM'
p1564
sg4
L993L
ssL994L
(dp1565
g8
V1702
p1566
sg10
V1000 North Wickham R
p1567
sg12
VLimited stock
p1568
sg14
V32935
p1569
sg16
VMelbourne
p1570
sg3
I2
sg5
S'Thursday, 10. May 2012 09:07PM'
p1571
sg4
L994L
ssL995L
(dp1572
g8
V5264
p1573
sg10
V13140 South Tamiami Trail
p1574
sg12
VIn stock
p1575
sg14
V34229
p1576
sg16
VOsprey
p1577
sg3
I3
sg5
S'Thursday, 10. May 2012 09:07PM'
p1578
sg4
L995L
ssL715L
(dp1579
g8
V1605
p1580
sg10
V4600 Mobile Hwy Ste 122
p1581
sg12
VIn stock
p1582
sg14
V32506
p1583
sg16
VPensacola
p1584
sg3
I3
sg5
S'Thursday, 10. May 2012 09:07PM'
p1585
sg4
L715L
ssL487L
(dp1586
g8
V697
p1587
sg10
V2600 Sw 19Th Avenue Rd
p1588
sg12
VIn stock
p1589
sg14
V34471
p1590
sg16
VOcala
p1591
sg3
I3
sg5
S'Thursday, 10. May 2012 09:07PM'
p1592
sg4
L487L
ssL1039L
(dp1593
g8
V528
p1594
sg10
V2911 53Rd Ave E
p1595
sg12
VLimited stock
p1596
sg14
V34203
p1597
sg16
VBraden River
p1598
sg3
I2
sg5
S'Thursday, 10. May 2012 09:07PM'
p1599
sg4
L1039L
ssL489L
(dp1600
g8
V1541
p1601
sg10
V9990 Belvedere Rd
p1602
sg12
VIn stock
p1603
sg14
V33411
p1604
sg16
VWest Palm Beach
p1605
sg3
I3
sg5
S'Thursday, 10. May 2012 09:07PM'
p1606
sg4
L489L
ssL679L
(dp1607
g8
V5054
p1608
sg10
V11900 Atlantic Blvd
p1609
sg12
VLimited stock
p1610
sg14
V32225
p1611
sg16
VJacksonville
p1612
sg3
I2
sg5
S'Thursday, 10. May 2012 09:07PM'
p1613
sg4
L679L
ssL2540L
(dp1614
g8
V4444
p1615
sg10
V10251 Shops Ln
p1616
sg12
VLimited stock
p1617
sg14
V32258
p1618
sg16
VJacksonville
p1619
sg3
I2
sg5
S'Thursday, 10. May 2012 09:07PM'
p1620
sg4
L2540L
ssL2301L
(dp1621
g3
Nsg4
L2301L
sg5
S'Thursday, 10. May 2012 09:07PM'
p1622
ssL3056L
(dp1623
g8
V3463
p1624
sg10
V1208 E Brandon Blvd
p1625
sg12
VIn stock
p1626
sg14
V33511
p1627
sg16
VBrandon
p1628
sg3
I3
sg5
S'Thursday, 10. May 2012 09:07PM'
p1629
sg4
L3056L
ssL8689L
(dp1630
g128
V2154
p1631
sg130
VGulf Shores
p1632
sg132
VOut Of Stock
p1633
sg134
S'Thursday, 10. May 2012 01:04PM'
p1634
sg136
I0
sg137
L8689L
ssL3571L
(dp1635
g8
V1032
p1636
sg10
V2101 S Highway 77
p1637
sg12
VLimited stock
p1638
sg14
V32444
p1639
sg16
VLynn Haven
p1640
sg3
I2
sg5
S'Thursday, 10. May 2012 09:07PM'
p1641
sg4
L3571L
ssL500L
(dp1642
g8
V547
p1643
sg10
V2602 James L Redman Pkwy
p1644
sg12
VOut of stock
p1645
sg14
V33566
p1646
sg16
VPlant City
p1647
sg3
I0
sg5
S'Thursday, 10. May 2012 09:07PM'
p1648
sg4
L500L
ssL2040L
(dp1649
g8
V859
p1650
sg10
V2000 State Road 60 E
p1651
sg12
VLimited stock
p1652
sg14
V33898
p1653
sg16
VLake Wales
p1654
sg3
I2
sg5
S'Thursday, 10. May 2012 09:07PM'
p1655
sg4
L2040L
ssL1529L
(dp1656
g8
V3310
p1657
sg10
V101 Howland Blvd
p1658
sg12
VLimited stock
p1659
sg14
V32738
p1660
sg16
VDeltona
p1661
sg3
I2
sg5
S'Thursday, 10. May 2012 09:07PM'
p1662
sg4
L1529L
ssL2044L
(dp1663
g3
Nsg4
L2044L
sg5
S'Thursday, 10. May 2012 09:07PM'
p1664
ssL170L
(dp1665
g8
V5055
p1666
sg10
V9885 Collier Blvd
p1667
sg12
VLimited stock
p1668
sg14
V34114
p1669
sg16
VNaples
p1670
sg3
I2
sg5
S'Thursday, 10. May 2012 09:07PM'
p1671
sg4
L170L
ssL2559L
(dp1672
g8
V968
p1673
sg10
V355 Cypress Gardens Blvd
p1674
sg12
VLimited stock
p1675
sg14
V33880
p1676
sg16
VWinter Haven
p1677
sg3
I2
sg5
S'Thursday, 10. May 2012 09:07PM'
p1678
sg4
L2559L
ss.