(dp1
L1024L
(dp2
S'name'
p3
VStaples
p4
sS'availcode'
p5
I2
sS'availbility'
p6
VLow Stock
p7
sS'zipcode'
p8
V33612
p9
sS'store_name'
p10
V\u000A\u000A11806 Bruce B. Downs Blvd.\u000ATampa \u000AFL\u000A33612\u000A
p11
sS'state'
p12
VFL
p13
sS'num'
p14
V0209
p15
sS'lat'
p16
V28.053660
p17
sS'lng'
p18
V-82.426480
p19
sS'last_update'
p20
S'Monday, 07. May 2012 09:39PM'
p21
sS'id'
p22
L1024L
ssL1L
(dp23
g3
VStaples
p24
sg5
I2
sg6
VLow Stock
p25
sg8
V32250
p26
sg10
V\u000A\u000A4016 South Third Street\u000AJacksonville Beach \u000AFL\u000A32250\u000A
p27
sg12
VFL
p28
sg14
V1915
p29
sg16
V30.256190
p30
sg18
V-81.388800
p31
sg20
S'Monday, 07. May 2012 09:39PM'
p32
sg22
L1L
ssL514L
(dp33
S'availcode'
p34
NsS'id'
p35
L514L
sS'last_update'
p36
S'Thursday, 10. May 2012 09:31PM'
p37
ssL1027L
(dp38
g3
VStaples
p39
sg5
I2
sg6
VLow Stock
p40
sg8
V32707
p41
sg10
V\u000ACasselberry Exchange\u000A5779 S. Hwy. 17-92\u000ACasselberry \u000AFL\u000A32707\u000A
p42
sg12
VFL
p43
sg14
V0214
p44
sg16
V28.661600
p45
sg18
V-81.341380
p46
sg20
S'Monday, 07. May 2012 09:39PM'
p47
sg22
L1027L
ssL5L
(dp48
g3
VStaples
p49
sg5
I2
sg6
VLow Stock
p50
sg8
V33511
p51
sg10
V\u000ARegency Square\u000A2424 W. Brandon Blvd.\u000ABrandon \u000AFL\u000A33511\u000A
p52
sg12
VFL
p53
sg14
V0210
p54
sg16
V27.938520
p55
sg18
V-82.322300
p56
sg20
S'Monday, 07. May 2012 09:39PM'
p57
sg22
L5L
ssL1031L
(dp58
S'store_name'
p59
VBest Buy - Millenia Mall
p60
sg34
I3
sS'num'
p61
S'1530'
p62
sg36
S'Thursday, 10. May 2012 09:31PM'
p63
sg35
L1031L
sS'availbility'
p64
I01
sS'zipcode'
p65
V32839
p66
ssL1035L
(dp67
g3
VStaples
p68
sg5
I2
sg6
VLow Stock
p69
sg8
V32114
p70
sg10
V\u000A\u000A2500 W. International Speedway Blvd.\u000ADaytona Beach \u000AFL\u000A32114\u000A
p71
sg12
VFL
p72
sg14
V1092
p73
sg16
V29.179630
p74
sg18
V-81.083020
p75
sg20
S'Monday, 07. May 2012 09:39PM'
p76
sg22
L1035L
ssL12L
(dp77
g3
VStaples
p78
sg5
I2
sg6
VLow Stock
p79
sg8
V33765
p80
sg10
V\u000ASunset Point Center\u000A23660 U.S. Hwy 19 N.\u000AClearwater \u000AFL\u000A33765\u000A
p81
sg12
VFL
p82
sg14
V0203
p83
sg16
V27.988150
p84
sg18
V-82.730660
p85
sg20
S'Monday, 07. May 2012 09:39PM'
p86
sg22
L12L
ssL1040L
(dp87
g59
VBest Buy - Port Charlotte - 1539
p88
sg34
I3
sg61
S'1539'
p89
sg36
S'Thursday, 10. May 2012 09:31PM'
p90
sg35
L1040L
sg64
I01
sg65
V33954
p91
ssL1044L
(dp92
g3
VStaples
p93
sg5
I2
sg6
VLow Stock
p94
sg8
V33186
p95
sg10
V\u000ACarter Square\u000A13640 North Kendall Drive\u000AMiami \u000AFL\u000A33186\u000A
p96
sg12
VFL
p97
sg14
V1721
p98
sg16
V25.684520
p99
sg18
V-80.415700
p100
sg20
S'Monday, 07. May 2012 09:39PM'
p101
sg22
L1044L
ssL24L
(dp102
g3
VStaples
p103
sg5
I2
sg6
VLow Stock
p104
sg8
V34470
p105
sg10
V\u000A\u000A1901 East Silversprings Blvd\u000AOcala \u000AFL\u000A34470\u000A
p106
sg12
VFL
p107
sg14
V0235
p108
sg16
V29.186500
p109
sg18
V-82.112000
p110
sg20
S'Monday, 07. May 2012 09:39PM'
p111
sg22
L24L
ssL26L
(dp112
g3
VStaples
p113
sg5
I0
sg6
VNot sold at this location
p114
sg8
V33326
p115
sg10
V\u000A\u000A15860 W SR 84\u000ASunrise \u000AFL\u000A33326\u000A
p116
sg12
VFL
p117
sg14
V1738
p118
sg16
V26.123840
p119
sg18
V-80.360430
p120
sg20
S'Monday, 07. May 2012 09:39PM'
p121
sg22
L26L
ssL27L
(dp122
g3
VStaples
p123
sg5
I0
sg6
VNot sold at this location
p124
sg8
V33913
p125
sg10
V\u000A(Located at A1-75 and Alico Rd.)\u000A10016 Gulf Center Drive\u000AFort Myers \u000AFL\u000A33913\u000A
p126
sg12
VFL
p127
sg14
V1625
p128
sg16
V26.491630
p129
sg18
V-81.791377
p130
sg20
S'Monday, 07. May 2012 09:39PM'
p131
sg22
L27L
ssL31L
(dp132
g3
VStaples
p133
sg5
I2
sg6
VLow Stock
p134
sg8
V32034
p135
sg10
V\u000A\u000A1836 South 8th Street\u000AFernandina Beach \u000AFL\u000A32034\u000A
p136
sg12
VFL
p137
sg14
V1063
p138
sg16
V30.642590
p139
sg18
V-81.458600
p140
sg20
S'Monday, 07. May 2012 09:39PM'
p141
sg22
L31L
ssL546L
(dp142
g3
VStaples
p143
sg5
I2
sg6
VLow Stock
p144
sg8
V33145
p145
sg10
V\u000A\u000A2120 SW 32nd Avenue\u000ACoral Gables \u000AFL\u000A33145\u000A
p146
sg12
VFL
p147
sg14
V1668
p148
sg16
V25.750520
p149
sg18
V-80.246060
p150
sg20
S'Monday, 07. May 2012 09:39PM'
p151
sg22
L546L
ssL689L
(dp152
g59
VBest Buy - Jensen Beach
p153
sg34
I3
sg61
S'881'
p154
sg36
S'Thursday, 10. May 2012 09:31PM'
p155
sg35
L689L
sg64
I01
sg65
V34994
p156
ssL48L
(dp157
g3
VStaples
p158
sg5
I2
sg6
VLow Stock
p159
sg8
V32746
p160
sg10
V\u000A\u000A4215 Lake Mary Blvd.\u000ALake Mary \u000AFL\u000A32746\u000A
p161
sg12
VFL
p162
sg14
V1038
p163
sg16
V28.755200
p164
sg18
V-81.347700
p165
sg20
S'Monday, 07. May 2012 09:39PM'
p166
sg22
L48L
ssL1073L
(dp167
g3
VStaples
p168
sg5
I2
sg6
VLow Stock
p169
sg8
V34606
p170
sg10
V\u000A\u000A4210 Commercial Way\u000ASpring Hill \u000AFL\u000A34606\u000A
p171
sg12
VFL
p172
sg14
V1058
p173
sg16
V28.493650
p174
sg18
V-82.597060
p175
sg20
S'Monday, 07. May 2012 09:39PM'
p176
sg22
L1073L
ssL562L
(dp177
g3
VStaples
p178
sg5
I-1
sg6
VOut of Stock
p179
sg8
V32137
p180
sg10
V\u000A\u000A9 Old Kings Road\u000APalm Coast \u000AFL\u000A32137\u000A
p181
sg12
VFL
p182
sg14
V1068
p183
sg16
V29.557200
p184
sg18
V-81.218100
p185
sg20
S'Monday, 07. May 2012 09:39PM'
p186
sg22
L562L
ssL51L
(dp187
g3
VStaples
p188
sg5
I0
sg6
VNot sold at this location
p189
sg8
V33426
p190
sg10
V\u000A\u000A1540 S. W. 8th Street\u000ABoynton Beach \u000AFL\u000A33426\u000A
p191
sg12
VFL
p192
sg14
V1194
p193
sg16
V26.515640
p194
sg18
V-80.076530
p195
sg20
S'Monday, 07. May 2012 09:39PM'
p196
sg22
L51L
ssL1078L
(dp197
g3
VStaples
p198
sg5
I2
sg6
VLow Stock
p199
sg8
V32818
p200
sg10
V\u000A\u000A867 Good Homes Rd\u000AOrlando \u000AFL\u000A32818\u000A
p201
sg12
VFL
p202
sg14
V1029
p203
sg16
V28.552300
p204
sg18
V-81.504510
p205
sg20
S'Monday, 07. May 2012 09:39PM'
p206
sg22
L1078L
ssL1081L
(dp207
g3
VStaples
p208
sg5
I3
sg6
VIn Stock
p209
sg8
V33139
p210
sg10
V\u000A\u000A1139 5th Street\u000AMiami Beach \u000AFL\u000A33139\u000A
p211
sg12
VFL
p212
sg14
V1849
p213
sg16
V25.774600
p214
sg18
V-80.139740
p215
sg20
S'Monday, 07. May 2012 09:39PM'
p216
sg22
L1081L
ssL60L
(dp217
g3
VStaples
p218
sg5
I2
sg6
VLow Stock
p219
sg8
V33033
p220
sg10
V\u000A\u000A2631 NE 10th Ct\u000AHomestead \u000AFL\u000A33033\u000A
p221
sg12
VFL
p222
sg14
V1892
p223
sg16
V25.478210
p224
sg18
V-80.441000
p225
sg20
S'Monday, 07. May 2012 09:39PM'
p226
sg22
L60L
ssL693L
(dp227
g59
VBest Buy - Port Richey
p228
sg34
I3
sg61
S'885'
p229
sg36
S'Thursday, 10. May 2012 09:31PM'
p230
sg35
L693L
sg64
I01
sg65
V34668
p231
ssL577L
(dp232
g59
VBest Buy - Palm Beach Gardens - Legacy Place Mall
p233
sg34
I3
sg61
S'688'
p234
sg36
S'Thursday, 10. May 2012 09:31PM'
p235
sg35
L577L
sg64
I01
sg65
V33410
p236
ssL69L
(dp237
g3
VStaples
p238
sg5
I2
sg6
VLow Stock
p239
sg8
V32177
p240
sg10
V\u000A\u000A327 Highway 19 North\u000APalatka \u000AFL\u000A32177\u000A
p241
sg12
VFL
p242
sg14
V1056
p243
sg16
V29.651510
p244
sg18
V-81.672410
p245
sg20
S'Monday, 07. May 2012 09:39PM'
p246
sg22
L69L
ssL582L
(dp247
g3
VStaples
p248
sg5
I0
sg6
VNot sold at this location
p249
sg8
V32207
p250
sg10
V\u000A\u000A5800 Beach Blvd.\u000AJacksonville \u000AFL\u000A32207\u000A
p251
sg12
VFL
p252
sg14
V1053
p253
sg16
V30.293000
p254
sg18
V-81.604400
p255
sg20
S'Monday, 07. May 2012 09:39PM'
p256
sg22
L582L
ssL591L
(dp257
g59
VBest Buy - Bonita Springs
p258
sg34
I3
sg61
S'767'
p259
sg36
S'Thursday, 10. May 2012 09:31PM'
p260
sg35
L591L
sg64
I01
sg65
V33928
p261
ssL595L
(dp262
g3
VStaples
p263
sg5
I2
sg6
VLow Stock
p264
sg8
V33542
p265
sg10
V\u000A\u000A7910 Gall Blvd\u000AZephyrhills \u000AFL\u000A33542\u000A
p266
sg12
VFL
p267
sg14
V1899
p268
sg16
V28.272850
p269
sg18
V-82.187500
p270
sg20
S'Monday, 07. May 2012 09:39PM'
p271
sg22
L595L
ssL598L
(dp272
g3
VStaples
p273
sg5
I0
sg6
VNot sold at this location
p274
sg8
V33025
p275
sg10
V\u000AWest Miramar at Flamingo Road\u000A12216 Miramar Parkway\u000AMiramar \u000AFL\u000A33025\u000A
p276
sg12
VFL
p277
sg14
V1875
p278
sg16
V25.978370
p279
sg18
V-80.309760
p280
sg20
S'Monday, 07. May 2012 09:39PM'
p281
sg22
L598L
ssL93L
(dp282
g3
VStaples
p283
sg5
I0
sg6
VNot sold at this location
p284
sg8
V33761
p285
sg10
V\u000A\u000A30190 US Highway 19N\u000AClearwater \u000AFL\u000A33761\u000A
p286
sg12
VFL
p287
sg14
V1544
p288
sg16
V28.048100
p289
sg18
V-82.739270
p290
sg20
S'Monday, 07. May 2012 09:39PM'
p291
sg22
L93L
ssL611L
(dp292
g59
VBest Buy - Destin FL
p293
sg34
I3
sg61
S'799'
p294
sg36
S'Thursday, 10. May 2012 09:31PM'
p295
sg35
L611L
sg64
I01
sg65
V32541
p296
ssL616L
(dp297
g3
VStaples
p298
sg5
I0
sg6
VNot sold at this location
p299
sg8
V34209
p300
sg10
V\u000A\u000A7210 Manatee Ave.\u000ABradenton \u000AFL\u000A34209\u000A
p301
sg12
VFL
p302
sg14
V1246
p303
sg16
V27.496590
p304
sg18
V-82.635160
p305
sg20
S'Monday, 07. May 2012 09:39PM'
p306
sg22
L616L
ssL106L
(dp307
g34
Nsg35
L106L
sg36
S'Thursday, 10. May 2012 09:31PM'
p308
ssL619L
(dp309
g59
VBest Buy - Boynton Beach
p310
sg34
I3
sg61
S'808'
p311
sg36
S'Thursday, 10. May 2012 09:31PM'
p312
sg35
L619L
sg64
I01
sg65
V33426
p313
ssL1132L
(dp314
g3
VStaples
p315
sg5
I0
sg6
VNot sold at this location
p316
sg8
V33064
p317
sg10
V\u000A\u000A3742 North Federal Highway\u000ALighthouse Point \u000AFL\u000A33064\u000A
p318
sg12
VFL
p319
sg14
V1726
p320
sg16
V26.277530
p321
sg18
V-80.097570
p322
sg20
S'Monday, 07. May 2012 09:39PM'
p323
sg22
L1132L
ssL626L
(dp324
g34
Nsg35
L626L
sg36
S'Thursday, 10. May 2012 09:31PM'
p325
ssL631L
(dp326
g3
VStaples
p327
sg5
I0
sg6
VNot sold at this location
p328
sg8
V32246
p329
sg10
V\u000A\u000A10261 River Marsh Drive\u000AJacksonville \u000AFL\u000A32246\u000A
p330
sg12
VFL
p331
sg14
V1616
p332
sg16
V30.253950
p333
sg18
V-81.523050
p334
sg20
S'Monday, 07. May 2012 09:39PM'
p335
sg22
L631L
ssL632L
(dp336
g3
VStaples
p337
sg5
I3
sg6
VIn Stock
p338
sg8
V32780
p339
sg10
V\u000A\u000A3155 Columbia Blvd.\u000ATitusville \u000AFL\u000A32780\u000A
p340
sg12
VFL
p341
sg14
V1081
p342
sg16
V28.553000
p343
sg18
V-80.845800
p344
sg20
S'Monday, 07. May 2012 09:39PM'
p345
sg22
L632L
ssL1072L
(dp346
g59
VBest Buy - Lady Lake Home Of The Stampede
p347
sg34
I3
sg61
S'1763'
p348
sg36
S'Thursday, 10. May 2012 09:31PM'
p349
sg35
L1072L
sg64
I01
sg65
V32159
p350
ssL635L
(dp351
g3
VStaples
p352
sg5
I0
sg6
VNot sold at this location
p353
sg8
V33165
p354
sg10
V\u000A\u000A8859 S.W. 24th St.\u000AMiami \u000AFL\u000A33165\u000A
p355
sg12
VFL
p356
sg14
V1656
p357
sg16
V25.747510
p358
sg18
V-80.339050
p359
sg20
S'Monday, 07. May 2012 09:39PM'
p360
sg22
L635L
ssL636L
(dp361
g3
VStaples
p362
sg5
I0
sg6
VNot sold at this location
p363
sg8
V34109
p364
sg10
V\u000A\u000A6305 Naples Blvd.\u000ANaples \u000AFL\u000A34109\u000A
p365
sg12
VFL
p366
sg14
V1207
p367
sg16
V26.219610
p368
sg18
V-81.772590
p369
sg20
S'Monday, 07. May 2012 09:39PM'
p370
sg22
L636L
ssL877L
(dp371
g59
VBest Buy - Florida City
p372
sg34
I3
sg61
S'1178'
p373
sg36
S'Thursday, 10. May 2012 09:31PM'
p374
sg35
L877L
sg64
I01
sg65
V33034
p375
ssL645L
(dp376
g3
VStaples
p377
sg5
I0
sg6
VNot sold at this location
p378
sg8
V33162
p379
sg10
V\u000A\u000A735 NE 167th St.\u000ANorth Miami Beach \u000AFL\u000A33162\u000A
p380
sg12
VFL
p381
sg14
V1736
p382
sg16
V25.929290
p383
sg18
V-80.185810
p384
sg20
S'Monday, 07. May 2012 09:39PM'
p385
sg22
L645L
ssL1165L
(dp386
g34
Nsg35
L1165L
sg36
S'Thursday, 10. May 2012 09:31PM'
p387
ssL142L
(dp388
g3
VStaples
p389
sg5
I2
sg6
VLow Stock
p390
sg8
V33647
p391
sg10
V\u000A\u000A6260 Commerce Palms\u000ANew Tampa \u000AFL\u000A33647\u000A
p392
sg12
VFL
p393
sg14
V1680
p394
sg16
V28.119890
p395
sg18
V-82.375120
p396
sg20
S'Monday, 07. May 2012 09:39PM'
p397
sg22
L142L
ssL655L
(dp398
g3
VStaples
p399
sg5
I2
sg6
VLow Stock
p400
sg8
V33907
p401
sg10
V\u000ACypress Lake Shopping Center\u000A7191-3 Cypress Lake Drive\u000AFt. Myers \u000AFL\u000A33907\u000A
p402
sg12
VFL
p403
sg14
V1209
p404
sg16
V26.544070
p405
sg18
V-81.873700
p406
sg20
S'Monday, 07. May 2012 09:39PM'
p407
sg22
L655L
ssL144L
(dp408
g3
VStaples
p409
sg5
I0
sg6
VNot sold at this location
p410
sg8
V33073
p411
sg10
V\u000A\u000A4301 W. Hillsboro Boulevard\u000ACoconut Creek \u000AFL\u000A33073\u000A
p412
sg12
VFL
p413
sg14
V1728
p414
sg16
V26.317660
p415
sg18
V-80.183860
p416
sg20
S'Monday, 07. May 2012 09:39PM'
p417
sg22
L144L
ssL147L
(dp418
g3
VStaples
p419
sg5
I2
sg6
VLow Stock
p420
sg8
V32086
p421
sg10
V\u000A\u000A1940 US Highway 1 South\u000ASt. Augustine \u000AFL\u000A32086\u000A
p422
sg12
VFL
p423
sg14
V1071
p424
sg16
V29.865800
p425
sg18
V-81.323400
p426
sg20
S'Monday, 07. May 2012 09:39PM'
p427
sg22
L147L
ssL560L
(dp428
g3
VStaples
p429
sg5
I2
sg6
VLow Stock
p430
sg8
V34787
p431
sg10
V\u000A\u000A3065 Daniels Road\u000AWinter Garden \u000AFL\u000A34787\u000A
p432
sg12
VFL
p433
sg14
V1740
p434
sg16
V28.522030
p435
sg18
V-81.589540
p436
sg20
S'Monday, 07. May 2012 09:39PM'
p437
sg22
L560L
ssL1173L
(dp438
g34
Nsg35
L1173L
sg36
S'Thursday, 10. May 2012 09:31PM'
p439
ssL150L
(dp440
g3
VStaples
p441
sg5
I0
sg6
VNot sold at this location
p442
sg8
V32223
p443
sg10
V\u000A\u000A11111 San Jose Blvd.  Suite 56\u000AJacksonville \u000AFL\u000A32223\u000A
p444
sg12
VFL
p445
sg14
V1884
p446
sg16
V30.173420
p447
sg18
V-81.627900
p448
sg20
S'Monday, 07. May 2012 09:39PM'
p449
sg22
L150L
ssL665L
(dp450
g59
VBest Buy - Panama City
p451
sg34
I3
sg61
S'857'
p452
sg36
S'Thursday, 10. May 2012 09:31PM'
p453
sg35
L665L
sg64
I01
sg65
V32405
p454
ssL154L
(dp455
g3
VStaples
p456
sg5
I0
sg6
VNot sold at this location
p457
sg8
V34113
p458
sg10
V\u000A\u000A12632 East Tamiami Trail\u000ANaples \u000AFL\u000A34113\u000A
p459
sg12
VFL
p460
sg14
V1775
p461
sg16
V26.063210
p462
sg18
V-81.700110
p463
sg20
S'Monday, 07. May 2012 09:39PM'
p464
sg22
L154L
ssL667L
(dp465
g3
VStaples
p466
sg5
I3
sg6
VIn Stock
p467
sg8
V34741
p468
sg10
V\u000A\u000A101 West Vine St.\u000AKissimmee \u000AFL\u000A34741\u000A
p469
sg12
VFL
p470
sg14
V1032
p471
sg16
V28.305000
p472
sg18
V-81.404710
p473
sg20
S'Monday, 07. May 2012 09:39PM'
p474
sg22
L667L
ssL1050L
(dp475
g34
Nsg35
L1050L
sg36
S'Thursday, 10. May 2012 09:31PM'
p476
ssL670L
(dp477
g59
VBest Buy - Ocala
p478
sg34
I3
sg61
S'862'
p479
sg36
S'Thursday, 10. May 2012 09:31PM'
p480
sg35
L670L
sg64
I01
sg65
V34471
p481
ssL453L
(dp482
g34
Nsg35
L453L
sg36
S'Thursday, 10. May 2012 09:31PM'
p483
ssL1186L
(dp484
g59
VBest Buy - New Tampa
p485
sg34
I3
sg61
S'2513'
p486
sg36
S'Thursday, 10. May 2012 09:31PM'
p487
sg35
L1186L
sg64
I01
sg65
V33647
p488
ssL164L
(dp489
g3
VStaples
p490
sg5
I-1
sg6
VOut of Stock
p491
sg8
V32905
p492
sg10
V\u000A\u000A1595 Palm Bay Rd.\u000APalm Bay \u000AFL\u000A32905\u000A
p493
sg12
VFL
p494
sg14
V1057
p495
sg16
V28.035420
p496
sg18
V-80.622290
p497
sg20
S'Monday, 07. May 2012 09:39PM'
p498
sg22
L164L
ssL1393L
(dp499
g34
Nsg35
L1393L
sg36
S'Thursday, 10. May 2012 09:31PM'
p500
ssL172L
(dp501
g3
VStaples
p502
sg5
I0
sg6
VNot sold at this location
p503
sg8
V33411
p504
sg10
V\u000A(Wellington)\u000A10465 Southern Blvd\u000ARoyal Palm Beach \u000AFL\u000A33411\u000A
p505
sg12
VFL
p506
sg14
V1862
p507
sg16
V26.681230
p508
sg18
V-80.208570
p509
sg20
S'Monday, 07. May 2012 09:39PM'
p510
sg22
L172L
ssL1198L
(dp511
g34
Nsg35
L1198L
sg36
S'Thursday, 10. May 2012 09:31PM'
p512
ssL1200L
(dp513
g34
Nsg35
L1200L
sg36
S'Thursday, 10. May 2012 09:31PM'
p514
ssL1201L
(dp515
g34
Nsg35
L1201L
sg36
S'Thursday, 10. May 2012 09:31PM'
p516
ssL1202L
(dp517
g34
Nsg35
L1202L
sg36
S'Thursday, 10. May 2012 09:31PM'
p518
ssL1205L
(dp519
g34
Nsg35
L1205L
sg36
S'Thursday, 10. May 2012 09:31PM'
p520
ssL1207L
(dp521
g3
VStaples
p522
sg5
I2
sg6
VLow Stock
p523
sg8
V33809
p524
sg10
V\u000AShoppes at Lakeland\u000A4011 US Highway 98 North\u000ALakeland \u000AFL\u000A33809\u000A
p525
sg12
VFL
p526
sg14
V0205
p527
sg16
V28.093524
p528
sg18
V-81.973717
p529
sg20
S'Monday, 07. May 2012 09:39PM'
p530
sg22
L1207L
ssL287L
(dp531
g3
VStaples
p532
sg5
I2
sg6
VLow Stock
p533
sg8
V33477
p534
sg10
V\u000AThe Shoppes At Jupiter\u000A201 North US 1\u000AJupiter \u000AFL\u000A33477\u000A
p535
sg12
VFL
p536
sg14
V0415
p537
sg16
V26.936300
p538
sg18
V-80.081400
p539
sg20
S'Monday, 07. May 2012 09:39PM'
p540
sg22
L287L
ssL1213L
(dp541
g34
Nsg35
L1213L
sg36
S'Thursday, 10. May 2012 09:31PM'
p542
ssL1215L
(dp543
g34
Nsg35
L1215L
sg36
S'Thursday, 10. May 2012 09:31PM'
p544
ssL1216L
(dp545
g34
Nsg35
L1216L
sg36
S'Thursday, 10. May 2012 09:31PM'
p546
ssL1217L
(dp547
g34
Nsg35
L1217L
sg36
S'Thursday, 10. May 2012 09:31PM'
p548
ssL1218L
(dp549
g34
Nsg35
L1218L
sg36
S'Thursday, 10. May 2012 09:31PM'
p550
ssL459L
(dp551
g34
Nsg35
L459L
sg36
S'Thursday, 10. May 2012 09:31PM'
p552
ssL1221L
(dp553
g34
Nsg35
L1221L
sg36
S'Thursday, 10. May 2012 09:31PM'
p554
ssL1226L
(dp555
g34
Nsg35
L1226L
sg36
S'Thursday, 10. May 2012 09:31PM'
p556
ssL210L
(dp557
g3
VStaples
p558
sg5
I0
sg6
VNot sold at this location
p559
sg8
V33764
p560
sg10
V\u000A\u000A10900 U.S. Hwy 19N\u000AClearwater \u000AFL\u000A33764\u000A
p561
sg12
VFL
p562
sg14
V0212
p563
sg16
V27.871500
p564
sg18
V-82.707200
p565
sg20
S'Monday, 07. May 2012 09:39PM'
p566
sg22
L210L
ssL1236L
(dp567
g34
Nsg35
L1236L
sg36
S'Thursday, 10. May 2012 09:31PM'
p568
ssL1237L
(dp569
g34
Nsg35
L1237L
sg36
S'Thursday, 10. May 2012 09:31PM'
p570
ssL377L
(dp571
g34
Nsg35
L377L
sg36
S'Thursday, 10. May 2012 09:31PM'
p572
ssL728L
(dp573
g3
VStaples
p574
sg5
I0
sg6
VNot sold at this location
p575
sg8
V32822
p576
sg10
V\u000AVista Palms\u000A7157 Narcoossee Road\u000AOrlando \u000AFL\u000A32822\u000A
p577
sg12
VFL
p578
sg14
V1901
p579
sg16
V28.464870
p580
sg18
V-81.273630
p581
sg20
S'Monday, 07. May 2012 09:39PM'
p582
sg22
L728L
ssL217L
(dp583
g3
VStaples
p584
sg5
I-1
sg6
VOut of Stock
p585
sg8
V33607
p586
sg10
V\u000AHorizon Park Plaza\u000A3702 West  Spruce St.\u000ATampa \u000AFL\u000A33607\u000A
p587
sg12
VFL
p588
sg14
V0201
p589
sg16
V27.958680
p590
sg18
V-82.507450
p591
sg20
S'Monday, 07. May 2012 09:39PM'
p592
sg22
L217L
ssL1243L
(dp593
g3
VStaples
p594
sg5
I0
sg6
VNot sold at this location
p595
sg8
V34119
p596
sg10
V\u000A\u000A2415 Tarpon Bay Blvd No. 4\u000ANaples \u000AFL\u000A34119\u000A
p597
sg12
VFL
p598
sg14
V1747
p599
sg16
V26.272130
p600
sg18
V-81.738420
p601
sg20
S'Monday, 07. May 2012 09:39PM'
p602
sg22
L1243L
ssL1244L
(dp603
g3
VStaples
p604
sg5
I2
sg6
VLow Stock
p605
sg8
V32065
p606
sg10
V\u000A\u000A700-16 South Blanding Blvd.\u000AOrange Park \u000AFL\u000A32065\u000A
p607
sg12
VFL
p608
sg14
V1066
p609
sg16
V30.146800
p610
sg18
V-81.759600
p611
sg20
S'Monday, 07. May 2012 09:39PM'
p612
sg22
L1244L
ssL736L
(dp613
g3
VStaples
p614
sg5
I0
sg6
VNot sold at this location
p615
sg8
V33990
p616
sg10
V\u000A\u000A1631 Del Prado Blvd.\u000ACape Coral \u000AFL\u000A33990\u000A
p617
sg12
VFL
p618
sg14
V1206
p619
sg16
V26.621270
p620
sg18
V-81.940050
p621
sg20
S'Monday, 07. May 2012 09:39PM'
p622
sg22
L736L
ssL740L
(dp623
g3
VStaples
p624
sg5
I0
sg6
VNot sold at this location
p625
sg8
V34207
p626
sg10
V\u000A\u000A5627 14th Street West\u000ABradenton \u000AFL\u000A34207\u000A
p627
sg12
VFL
p628
sg14
V0191
p629
sg16
V27.440500
p630
sg18
V-82.575200
p631
sg20
S'Monday, 07. May 2012 09:39PM'
p632
sg22
L740L
ssL229L
(dp633
g3
VStaples
p634
sg5
I0
sg6
VNot sold at this location
p635
sg8
V33156
p636
sg10
V\u000A\u000A9801 South Dixie Hwy (US 1)\u000APinecrest \u000AFL\u000A33156\u000A
p637
sg12
VFL
p638
sg14
V1672
p639
sg16
V25.679800
p640
sg18
V-80.317530
p641
sg20
S'Monday, 07. May 2012 09:39PM'
p642
sg22
L229L
ssL1255L
(dp643
g3
VStaples
p644
sg5
I-1
sg6
VOut of Stock
p645
sg8
V32303
p646
sg10
V\u000A\u000A2241 North Monroe Street\u000ATallahassee \u000AFL\u000A32303\u000A
p647
sg12
VFL
p648
sg14
V1072
p649
sg16
V30.470700
p650
sg18
V-84.289700
p651
sg20
S'Monday, 07. May 2012 09:39PM'
p652
sg22
L1255L
ssL551L
(dp653
g59
VBest Buy - Sanford
p654
sg34
I3
sg61
S'608'
p655
sg36
S'Thursday, 10. May 2012 09:31PM'
p656
sg35
L551L
sg64
I01
sg65
V32771
p657
ssL236L
(dp658
g3
VStaples
p659
sg5
I0
sg6
VNot sold at this location
p660
sg8
V33062
p661
sg10
V\u000AThe Marketplace at Pompano\u000AS. 1245 Federal Highway\u000APompano \u000AFL\u000A33062\u000A
p662
sg12
VFL
p663
sg14
V1729
p664
sg16
V26.214810
p665
sg18
V-80.105730
p666
sg20
S'Monday, 07. May 2012 09:39PM'
p667
sg22
L236L
ssL1261L
(dp668
g34
Nsg35
L1261L
sg36
S'Thursday, 10. May 2012 09:31PM'
p669
ssL238L
(dp670
g3
VStaples
p671
sg5
I0
sg6
VNot sold at this location
p672
sg8
V33334
p673
sg10
V\u000A\u000A1707 E Commercial Blvd\u000AFt Lauderdale \u000AFL\u000A33334\u000A
p674
sg12
VFL
p675
sg14
V1752
p676
sg16
V26.189040
p677
sg18
V-80.124440
p678
sg20
S'Monday, 07. May 2012 09:39PM'
p679
sg22
L238L
ssL752L
(dp680
g3
VStaples
p681
sg5
I2
sg6
VLow Stock
p682
sg8
V34471
p683
sg10
V\u000A\u000A2497 South West 27th Avenue\u000AOcala \u000AFL\u000A34471\u000A
p684
sg12
VFL
p685
sg14
V1679
p686
sg16
V29.163050
p687
sg18
V-82.168590
p688
sg20
S'Monday, 07. May 2012 09:39PM'
p689
sg22
L752L
ssL241L
(dp690
g3
VStaples
p691
sg5
I2
sg6
VLow Stock
p692
sg8
V33409
p693
sg10
V\u000A\u000A2029 Okeechobee Blvd.\u000AWest Palm Beach \u000AFL\u000A33409\u000A
p694
sg12
VFL
p695
sg14
V1683
p696
sg16
V26.706560
p697
sg18
V-80.081400
p698
sg20
S'Monday, 07. May 2012 09:39PM'
p699
sg22
L241L
ssL244L
(dp700
g3
VStaples
p701
sg5
I2
sg6
VLow Stock
p702
sg8
V33618
p703
sg10
V\u000A\u000A15110 N. Dale Mabry\u000ATampa \u000AFL\u000A33618\u000A
p704
sg12
VFL
p705
sg14
V0945
p706
sg16
V28.085810
p707
sg18
V-82.505480
p708
sg20
S'Monday, 07. May 2012 09:39PM'
p709
sg22
L244L
ssL1274L
(dp710
g3
VStaples
p711
sg5
I2
sg6
VLow Stock
p712
sg8
V34769
p713
sg10
V\u000AThe Oaks Shopping Center\u000A4058 13th Street\u000ASt. Cloud \u000AFL\u000A34769\u000A
p714
sg12
VFL
p715
sg14
V1827
p716
sg16
V28.251380
p717
sg18
V-81.313180
p718
sg20
S'Monday, 07. May 2012 09:39PM'
p719
sg22
L1274L
ssL1276L
(dp720
g34
Nsg35
L1276L
sg36
S'Thursday, 10. May 2012 09:31PM'
p721
ssL772L
(dp722
g3
VStaples
p723
sg5
I2
sg6
VLow Stock
p724
sg8
V33948
p725
sg10
V\u000A\u000A1825 Tamiami Trail\u000APort Charlotte \u000AFL\u000A33948\u000A
p726
sg12
VFL
p727
sg14
V0421
p728
sg16
V27.005200
p729
sg18
V-82.132400
p730
sg20
S'Monday, 07. May 2012 09:39PM'
p731
sg22
L772L
ssL1286L
(dp732
g3
VStaples
p733
sg5
I0
sg6
VNot sold at this location
p734
sg8
V33905
p735
sg10
V\u000AColonial Drive and I75\u000A3236 Forum Blvd\u000AFort Myers \u000AFL\u000A33905\u000A
p736
sg12
VFL
p737
sg14
V1861
p738
sg16
V26.615420
p739
sg18
V-81.799400
p740
sg20
S'Monday, 07. May 2012 09:39PM'
p741
sg22
L1286L
ssL263L
(dp742
g3
VStaples
p743
sg5
I-1
sg6
VOut of Stock
p744
sg8
V33837
p745
sg10
V\u000A\u000A3500 Posner Blvd.\u000ADavenport \u000AFL\u000A33837\u000A
p746
sg12
VFL
p747
sg14
V1843
p748
sg16
V28.232090
p749
sg18
V-81.649360
p750
sg20
S'Monday, 07. May 2012 09:39PM'
p751
sg22
L263L
ssL786L
(dp752
g3
VStaples
p753
sg5
I0
sg6
VNot sold at this location
p754
sg8
V32712
p755
sg10
V\u000AApopka Commons\u000A1626 West Orange Blossom Trail\u000AApopka \u000AFL\u000A32712\u000A
p756
sg12
VFL
p757
sg14
V1820
p758
sg16
V28.686850
p759
sg18
V-81.540820
p760
sg20
S'Monday, 07. May 2012 09:39PM'
p761
sg22
L786L
ssL133L
(dp762
g3
VStaples
p763
sg5
I0
sg6
VNot sold at this location
p764
sg8
V34110
p765
sg10
V\u000A\u000A13585 N Tamiami Trail Ste 12\u000ANaples \u000AFL\u000A34110\u000A
p766
sg12
VFL
p767
sg14
V1624
p768
sg16
V26.294880
p769
sg18
V-81.804710
p770
sg20
S'Monday, 07. May 2012 09:39PM'
p771
sg22
L133L
ssL1312L
(dp772
g34
Nsg35
L1312L
sg36
S'Thursday, 10. May 2012 09:31PM'
p773
ssL289L
(dp774
g3
VStaples
p775
sg5
I2
sg6
VLow Stock
p776
sg8
V32504
p777
sg10
V\u000A\u000A1123 Airport Blvd.\u000APensacola \u000AFL\u000A32504\u000A
p778
sg12
VFL
p779
sg14
V1876
p780
sg16
V30.481180
p781
sg18
V-87.221650
p782
sg20
S'Monday, 07. May 2012 09:39PM'
p783
sg22
L289L
ssL504L
(dp784
g34
Nsg35
L504L
sg36
S'Thursday, 10. May 2012 09:31PM'
p785
ssL298L
(dp786
g34
Nsg35
L298L
sg36
S'Thursday, 10. May 2012 09:31PM'
p787
ssL1074L
(dp788
g34
Nsg35
L1074L
sg36
S'Thursday, 10. May 2012 09:31PM'
p789
ssL1331L
(dp790
g3
VStaples
p791
sg5
I2
sg6
VLow Stock
p792
sg8
V33713
p793
sg10
V\u000A\u000A2004 34th Street North\u000ASt. Petersburg \u000AFL\u000A33713\u000A
p794
sg12
VFL
p795
sg14
V0202
p796
sg16
V27.791540
p797
sg18
V-82.680220
p798
sg20
S'Monday, 07. May 2012 09:39PM'
p799
sg22
L1331L
ssL827L
(dp800
g3
VStaples
p801
sg5
I2
sg6
VLow Stock
p802
sg8
V33012
p803
sg10
V\u000A\u000A1700 West 49th Street\u000AHialeah \u000AFL\u000A33012\u000A
p804
sg12
VFL
p805
sg14
V1654
p806
sg16
V25.866350
p807
sg18
V-80.315960
p808
sg20
S'Monday, 07. May 2012 09:39PM'
p809
sg22
L827L
ssL320L
(dp810
g3
VStaples
p811
sg5
I-1
sg6
VOut of Stock
p812
sg8
V34293
p813
sg10
V\u000A\u000A4291 S. Tamiami Trail\u000AVenice \u000AFL\u000A34293\u000A
p814
sg12
VFL
p815
sg14
V0649
p816
sg16
V27.050360
p817
sg18
V-82.390010
p818
sg20
S'Monday, 07. May 2012 09:39PM'
p819
sg22
L320L
ssL834L
(dp820
g3
VStaples
p821
sg5
I2
sg6
VLow Stock
p822
sg8
V34952
p823
sg10
V\u000A\u000A10139 SE US Hwy 1\u000APort St. Lucie \u000AFL\u000A34952\u000A
p824
sg12
VFL
p825
sg14
V0624
p826
sg16
V27.271600
p827
sg18
V-80.290100
p828
sg20
S'Monday, 07. May 2012 09:39PM'
p829
sg22
L834L
ssL1347L
(dp830
g3
VStaples
p831
sg5
I0
sg6
VNot sold at this location
p832
sg8
V32301
p833
sg10
V\u000A\u000A2345 Apalachee Parkway\u000ATallahassee \u000AFL\u000A32301\u000A
p834
sg12
VFL
p835
sg14
V1060
p836
sg16
V30.429300
p837
sg18
V-84.242400
p838
sg20
S'Monday, 07. May 2012 09:39PM'
p839
sg22
L1347L
ssL1349L
(dp840
g34
Nsg35
L1349L
sg36
S'Thursday, 10. May 2012 09:31PM'
p841
ssL838L
(dp842
g59
VBest Buy - Gulf Coast
p843
sg34
I3
sg61
S'1135'
p844
sg36
S'Thursday, 10. May 2012 09:31PM'
p845
sg35
L838L
sg64
I01
sg65
V33913
p846
ssL839L
(dp847
g59
VBest Buy - Coral Springs
p848
sg34
I3
sg61
S'1136'
p849
sg36
S'Thursday, 10. May 2012 09:31PM'
p850
sg35
L839L
sg64
I01
sg65
V33071
p851
ssL1355L
(dp852
g3
VStaples
p853
sg5
I0
sg6
VNot sold at this location
p854
sg8
V32819
p855
sg10
V\u000ASand Lake\u000A8421 S John Young Pkwy\u000AOrlando \u000AFL\u000A32819\u000A
p856
sg12
VFL
p857
sg14
V1004
p858
sg16
V28.449400
p859
sg18
V-81.424400
p860
sg20
S'Monday, 07. May 2012 09:39PM'
p861
sg22
L1355L
ssL844L
(dp862
g59
VBest Buy - Bradenton
p863
sg34
I3
sg61
S'1141'
p864
sg36
S'Thursday, 10. May 2012 09:31PM'
p865
sg35
L844L
sg64
I01
sg65
V34205
p866
ssL333L
(dp867
g3
VStaples
p868
sg5
I2
sg6
VLow Stock
p869
sg8
V34711
p870
sg10
V\u000A\u000A1600 South Grand Highway\u000AClermont \u000AFL\u000A34711\u000A
p871
sg12
VFL
p872
sg14
V1622
p873
sg16
V28.546510
p874
sg18
V-81.741270
p875
sg20
S'Monday, 07. May 2012 09:39PM'
p876
sg22
L333L
ssL336L
(dp877
g3
VStaples
p878
sg5
I0
sg6
VNot sold at this location
p879
sg8
V33144
p880
sg10
V\u000A(67th and 8th)\u000A1044 SW 67th Ave\u000AMIAMI \u000AFL\u000A33144\u000A
p881
sg12
VFL
p882
sg14
V1735
p883
sg16
V25.763440
p884
sg18
V-80.305300
p885
sg20
S'Monday, 07. May 2012 09:39PM'
p886
sg22
L336L
ssL338L
(dp887
g3
VStaples
p888
sg5
I0
sg6
VNot sold at this location
p889
sg8
V33176
p890
sg10
V\u000AKendall Mall\u000A8811 SW 107th Avenue\u000AMiami \u000AFL\u000A33176\u000A
p891
sg12
VFL
p892
sg14
V1673
p893
sg16
V25.687940
p894
sg18
V-80.368630
p895
sg20
S'Monday, 07. May 2012 09:39PM'
p896
sg22
L338L
ssL342L
(dp897
g34
Nsg35
L342L
sg36
S'Thursday, 10. May 2012 09:31PM'
p898
ssL228L
(dp899
g3
VStaples
p900
sg5
I2
sg6
VLow Stock
p901
sg8
V32159
p902
sg10
V\u000A\u000A720 US Hwy. 441\u000ALady Lake (The Villages) \u000AFL\u000A32159\u000A
p903
sg12
VFL
p904
sg14
V1623
p905
sg16
V28.934550
p906
sg18
V-81.938970
p907
sg20
S'Monday, 07. May 2012 09:39PM'
p908
sg22
L228L
ssL858L
(dp909
g34
Nsg35
L858L
sg36
S'Thursday, 10. May 2012 09:31PM'
p910
ssL1167L
(dp911
g34
Nsg35
L1167L
sg36
S'Thursday, 10. May 2012 09:31PM'
p912
ssL349L
(dp913
g3
VStaples
p914
sg5
I2
sg6
VLow Stock
p915
sg8
V34201
p916
sg10
V\u000A\u000A5429 University Pkwy\u000AUniversity Park \u000AFL\u000A34201\u000A
p917
sg12
VFL
p918
sg14
V1220
p919
sg16
V27.390720
p920
sg18
V-82.460470
p921
sg20
S'Monday, 07. May 2012 09:39PM'
p922
sg22
L349L
ssL352L
(dp923
g3
VStaples
p924
sg5
I2
sg6
VLow Stock
p925
sg8
V34236
p926
sg10
V\u000A\u000A1900 Fruitville Road\u000ASarasota \u000AFL\u000A34236\u000A
p927
sg12
VFL
p928
sg14
V1927
p929
sg16
V27.338840
p930
sg18
V-82.532280
p931
sg20
S'Monday, 07. May 2012 09:39PM'
p932
sg22
L352L
ssL1171L
(dp933
g34
Nsg35
L1171L
sg36
S'Thursday, 10. May 2012 09:31PM'
p934
ssL870L
(dp935
g59
VBest Buy - Wellington
p936
sg34
I3
sg61
S'1168'
p937
sg36
S'Thursday, 10. May 2012 09:31PM'
p938
sg35
L870L
sg64
I01
sg65
V33414
p939
ssL1385L
(dp940
g3
VStaples
p941
sg5
I-1
sg6
VOut of Stock
p942
sg8
V32935
p943
sg10
V\u000ASuite #13\u000A1270-13 North Wickham Road\u000AMelbourne \u000AFL\u000A32935\u000A
p944
sg12
VFL
p945
sg14
V1055
p946
sg16
V28.126550
p947
sg18
V-80.674030
p948
sg20
S'Monday, 07. May 2012 09:39PM'
p949
sg22
L1385L
ssL1389L
(dp950
g34
Nsg35
L1389L
sg36
S'Thursday, 10. May 2012 09:31PM'
p951
ssL881L
(dp952
g59
VBest Buy - Davenport
p953
sg34
I3
sg61
S'1184'
p954
sg36
S'Thursday, 10. May 2012 09:31PM'
p955
sg35
L881L
sg64
I01
sg65
V33837
p956
ssL371L
(dp957
g34
Nsg35
L371L
sg36
S'Thursday, 10. May 2012 09:31PM'
p958
ssL376L
(dp959
g34
Nsg35
L376L
sg36
S'Thursday, 10. May 2012 09:31PM'
p960
ssL1401L
(dp961
g3
VStaples
p962
sg5
I0
sg6
VNot sold at this location
p963
sg8
V32828
p964
sg10
V\u000A\u000A638 N Alafaya Trail\u000AOrlando \u000AFL\u000A32828\u000A
p965
sg12
VFL
p966
sg14
V1781
p967
sg16
V28.562960
p968
sg18
V-81.210050
p969
sg20
S'Monday, 07. May 2012 09:39PM'
p970
sg22
L1401L
ssL378L
(dp971
g59
VBest Buy - Fort Myers
p972
sg34
I3
sg61
S'431'
p973
sg36
S'Thursday, 10. May 2012 09:31PM'
p974
sg35
L378L
sg64
I01
sg65
V33907
p975
ssL382L
(dp976
g34
Nsg35
L382L
sg36
S'Thursday, 10. May 2012 09:31PM'
p977
ssL896L
(dp978
g3
VStaples
p979
sg5
I0
sg6
VNot sold at this location
p980
sg8
V33322
p981
sg10
V\u000A\u000A1937 N Pine Island Rd\u000APlantation \u000AFL\u000A33322\u000A
p982
sg12
VFL
p983
sg14
V1784
p984
sg16
V26.146070
p985
sg18
V-80.268120
p986
sg20
S'Monday, 07. May 2012 09:39PM'
p987
sg22
L896L
ssL1344L
(dp988
g3
VStaples
p989
sg5
I2
sg6
VLow Stock
p990
sg8
V33778
p991
sg10
V\u000ALargo Mall\u000A13013 Seminole Blvd\u000ALargo \u000AFL\u000A33778\u000A
p992
sg12
VFL
p993
sg14
V0229
p994
sg16
V27.894490
p995
sg18
V-82.787150
p996
sg20
S'Monday, 07. May 2012 09:39PM'
p997
sg22
L1344L
ssL1172L
(dp998
g34
Nsg35
L1172L
sg36
S'Thursday, 10. May 2012 09:31PM'
p999
ssL899L
(dp1000
g34
Nsg35
L899L
sg36
S'Thursday, 10. May 2012 09:31PM'
p1001
ssL900L
(dp1002
g3
VStaples
p1003
sg5
I2
sg6
VLow Stock
p1004
sg8
V33880
p1005
sg10
V\u000ACiti Centre\u000A700 3rd St SW 470 Citi Centre\u000AWinter Haven \u000AFL\u000A33880\u000A
p1006
sg12
VFL
p1007
sg14
V0344
p1008
sg16
V28.011970
p1009
sg18
V-81.730100
p1010
sg20
S'Monday, 07. May 2012 09:39PM'
p1011
sg22
L900L
ssL1174L
(dp1012
g34
Nsg35
L1174L
sg36
S'Thursday, 10. May 2012 09:31PM'
p1013
ssL905L
(dp1014
g59
VBest Buy - Spring Hill
p1015
sg34
I3
sg61
S'1383'
p1016
sg36
S'Thursday, 10. May 2012 09:31PM'
p1017
sg35
L905L
sg64
I01
sg65
V34607
p1018
ssL395L
(dp1019
g3
VStaples
p1020
sg5
I2
sg6
VLow Stock
p1021
sg8
V34982
p1022
sg10
V\u000ASable Palm Plaza\u000A2609 South Federal Highway\u000AFort Pierce \u000AFL\u000A34982\u000A
p1023
sg12
VFL
p1024
sg14
V0441
p1025
sg16
V27.423900
p1026
sg18
V-80.326600
p1027
sg20
S'Monday, 07. May 2012 09:39PM'
p1028
sg22
L395L
ssL1360L
(dp1029
g34
Nsg35
L1360L
sg36
S'Thursday, 10. May 2012 09:31PM'
p1030
ssL750L
(dp1031
g3
VStaples
p1032
sg5
I0
sg6
VNot sold at this location
p1033
sg8
V33483
p1034
sg10
V\u000AThe Plaza at Delray\u000A1626 S. Federal Highway\u000ADelray Beach \u000AFL\u000A33483\u000A
p1035
sg12
VFL
p1036
sg14
V1208
p1037
sg16
V26.440520
p1038
sg18
V-80.072420
p1039
sg20
S'Monday, 07. May 2012 09:39PM'
p1040
sg22
L750L
ssL408L
(dp1041
g34
Nsg35
L408L
sg36
S'Thursday, 10. May 2012 09:31PM'
p1042
ssL922L
(dp1043
g59
VBest Buy - Wesley Chapel
p1044
sg34
I3
sg61
S'1405'
p1045
sg36
S'Thursday, 10. May 2012 09:31PM'
p1046
sg35
L922L
sg64
I01
sg65
V33544
p1047
ssL1093L
(dp1048
g59
VBest Buy - Saint Johns
p1049
sg34
I3
sg61
S'1790'
p1050
sg36
S'Thursday, 10. May 2012 09:31PM'
p1051
sg35
L1093L
sg64
I01
sg65
V32246
p1052
ssL928L
(dp1053
g59
VBest Buy - Kissimmee
p1054
sg34
I3
sg61
S'1411'
p1055
sg36
S'Thursday, 10. May 2012 09:31PM'
p1056
sg35
L928L
sg64
I01
sg65
V34741
p1057
ssL496L
(dp1058
g34
Nsg35
L496L
sg36
S'Thursday, 10. May 2012 09:31PM'
p1059
ssL930L
(dp1060
g3
VStaples
p1061
sg5
I0
sg6
VNot sold at this location
p1062
sg8
V33063
p1063
sg10
V\u000A\u000A5307 West Atlantic Boulevard\u000AMargate \u000AFL\u000A33063\u000A
p1064
sg12
VFL
p1065
sg14
V1655
p1066
sg16
V26.236030
p1067
sg18
V-80.197660
p1068
sg20
S'Monday, 07. May 2012 09:39PM'
p1069
sg22
L930L
ssL934L
(dp1070
g3
VStaples
p1071
sg5
I2
sg6
VLow Stock
p1072
sg8
V32960
p1073
sg10
V\u000A\u000A1191 US Highway 1\u000AVero Beach \u000AFL\u000A32960\u000A
p1074
sg12
VFL
p1075
sg14
V0625
p1076
sg16
V27.622450
p1077
sg18
V-80.389760
p1078
sg20
S'Monday, 07. May 2012 09:39PM'
p1079
sg22
L934L
ssL389L
(dp1080
g59
VBest Buy - Ocoee
p1081
sg34
I3
sg61
S'443'
p1082
sg36
S'Thursday, 10. May 2012 09:31PM'
p1083
sg35
L389L
sg64
I01
sg65
V34761
p1084
ssL941L
(dp1085
g59
VBest Buy - Margate
p1086
sg34
I3
sg61
S'1424'
p1087
sg36
S'Thursday, 10. May 2012 09:31PM'
p1088
sg35
L941L
sg64
I01
sg65
V33063
p1089
ssL499L
(dp1090
g59
VBest Buy - Cutler Bay
p1091
sg34
I3
sg61
S'556'
p1092
sg36
S'Thursday, 10. May 2012 09:31PM'
p1093
sg35
L499L
sg64
I01
sg65
V33157
p1094
ssL949L
(dp1095
g3
VStaples
p1096
sg5
I2
sg6
VLow Stock
p1097
sg8
V33813
p1098
sg10
V\u000A\u000A4313 South Florida Ave.\u000ALakeland \u000AFL\u000A33813\u000A
p1099
sg12
VFL
p1100
sg14
V1064
p1101
sg16
V27.987200
p1102
sg18
V-81.957000
p1103
sg20
S'Monday, 07. May 2012 09:39PM'
p1104
sg22
L949L
ssL950L
(dp1105
g3
VStaples
p1106
sg5
I2
sg6
VLow Stock
p1107
sg8
V32765
p1108
sg10
V\u000AOviedo Crossroads\u000A1950 W. State Road 426\u000AOviedo \u000AFL\u000A32765\u000A
p1109
sg12
VFL
p1110
sg14
V1031
p1111
sg16
V28.647350
p1112
sg18
V-81.231440
p1113
sg20
S'Monday, 07. May 2012 09:39PM'
p1114
sg22
L950L
ssL951L
(dp1115
g3
VStaples
p1116
sg5
I0
sg6
VNot sold at this location
p1117
sg8
V33324
p1118
sg10
V\u000APine Island Shopping Center\u000A8864 State Road 84\u000ADavie \u000AFL\u000A33324\u000A
p1119
sg12
VFL
p1120
sg14
V1744
p1121
sg16
V26.102240
p1122
sg18
V-80.267180
p1123
sg20
S'Monday, 07. May 2012 09:39PM'
p1124
sg22
L951L
ssL500L
(dp1125
g59
VBest Buy - Dadeland
p1126
sg34
I3
sg61
S'557'
p1127
sg36
S'Thursday, 10. May 2012 09:31PM'
p1128
sg35
L500L
sg64
I01
sg65
V33143
p1129
ssL449L
(dp1130
g3
VStaples
p1131
sg5
I0
sg6
VNot sold at this location
p1132
sg8
V33319
p1133
sg10
V\u000A\u000A7500 W. Commercial Blvd.\u000ALauderhill \u000AFL\u000A33319\u000A
p1134
sg12
VFL
p1135
sg14
V1674
p1136
sg16
V26.193272
p1137
sg18
V-80.251353
p1138
sg20
S'Monday, 07. May 2012 09:39PM'
p1139
sg22
L449L
ssL964L
(dp1140
g3
VStaples
p1141
sg5
I2
sg6
VLow Stock
p1142
sg8
V34994
p1143
sg10
V\u000A\u000A3150 SE Federal Highway\u000AStuart \u000AFL\u000A34994\u000A
p1144
sg12
VFL
p1145
sg14
V1184
p1146
sg16
V27.165800
p1147
sg18
V-80.228900
p1148
sg20
S'Monday, 07. May 2012 09:39PM'
p1149
sg22
L964L
ssL965L
(dp1150
g3
VStaples
p1151
sg5
I2
sg6
VLow Stock
p1152
sg8
V32536
p1153
sg10
V\u000A\u000A2821 Ferdon Blvd South\u000ACrestview \u000AFL\u000A32536\u000A
p1154
sg12
VFL
p1155
sg14
V1882
p1156
sg16
V30.731820
p1157
sg18
V-86.566150
p1158
sg20
S'Monday, 07. May 2012 09:39PM'
p1159
sg22
L965L
ssL454L
(dp1160
g59
VBest Buy - Florida Mall
p1161
sg34
I3
sg61
S'510'
p1162
sg36
S'Thursday, 10. May 2012 09:31PM'
p1163
sg35
L454L
sg64
I01
sg65
V32809
p1164
ssL967L
(dp1165
g59
VBest Buy - University Town Center
p1166
sg34
I3
sg61
S'1452'
p1167
sg36
S'Thursday, 10. May 2012 09:31PM'
p1168
sg35
L967L
sg64
I01
sg65
V34243
p1169
ssL1055L
(dp1170
g34
Nsg35
L1055L
sg36
S'Thursday, 10. May 2012 09:31PM'
p1171
ssL1356L
(dp1172
g34
Nsg35
L1356L
sg36
S'Thursday, 10. May 2012 09:31PM'
p1173
ssL971L
(dp1174
g3
VStaples
p1175
sg5
I2
sg6
VLow Stock
p1176
sg8
V33403
p1177
sg10
V\u000ALake Park Shopping Ctr.\u000A1260 Northlake Blvd.\u000ALake Park \u000AFL\u000A33403\u000A
p1178
sg12
VFL
p1179
sg14
V1199
p1180
sg16
V26.806900
p1181
sg18
V-80.081400
p1182
sg20
S'Monday, 07. May 2012 09:39PM'
p1183
sg22
L971L
ssL465L
(dp1184
g3
VStaples
p1185
sg5
I2
sg6
VLow Stock
p1186
sg8
V33563
p1187
sg10
V\u000A\u000A1866 Jim Redman Pkwy\u000APlant City \u000AFL\u000A33563\u000A
p1188
sg12
VFL
p1189
sg14
V1069
p1190
sg16
V27.995040
p1191
sg18
V-82.120590
p1192
sg20
S'Monday, 07. May 2012 09:39PM'
p1193
sg22
L465L
ssL467L
(dp1194
g3
VStaples
p1195
sg5
I2
sg6
VLow Stock
p1196
sg8
V32803
p1197
sg10
V\u000A\u000A2774 East Colonial Drive\u000AOrlando \u000AFL\u000A32803\u000A
p1198
sg12
VFL
p1199
sg14
V1034
p1200
sg16
V28.551910
p1201
sg18
V-81.350120
p1202
sg20
S'Monday, 07. May 2012 09:39PM'
p1203
sg22
L467L
ssL468L
(dp1204
g59
VBest Buy - Naples
p1205
sg34
I3
sg61
S'524'
p1206
sg36
S'Thursday, 10. May 2012 09:31PM'
p1207
sg35
L468L
sg64
I01
sg65
V34109
p1208
ssL471L
(dp1209
g3
VStaples
p1210
sg5
I0
sg6
VNot sold at this location
p1211
sg8
V33909
p1212
sg10
V\u000A\u000A1800 Pine Island Road NE\u000ACape Coral \u000AFL\u000A33909\u000A
p1213
sg12
VFL
p1214
sg14
V1776
p1215
sg16
V26.668730
p1216
sg18
V-81.934460
p1217
sg20
S'Monday, 07. May 2012 09:39PM'
p1218
sg22
L471L
ssL990L
(dp1219
g59
VBest Buy - North Jacksonville (River City Marketplace)
p1220
sg34
I3
sg61
S'1475'
p1221
sg36
S'Thursday, 10. May 2012 09:31PM'
p1222
sg35
L990L
sg64
I01
sg65
V32218
p1223
ssL993L
(dp1224
g3
VStaples
p1225
sg5
I0
sg6
VNot sold at this location
p1226
sg8
V33137
p1227
sg10
V\u000A\u000A2121 Biscayne Blvd\u000AMiami \u000AFL\u000A33137\u000A
p1228
sg12
VFL
p1229
sg14
V1831
p1230
sg16
V25.797520
p1231
sg18
V-80.188880
p1232
sg20
S'Monday, 07. May 2012 09:39PM'
p1233
sg22
L993L
ssL507L
(dp1234
g59
VBest Buy - Clearwater
p1235
sg34
I3
sg61
S'564'
p1236
sg36
S'Thursday, 10. May 2012 09:31PM'
p1237
sg35
L507L
sg64
I01
sg65
V33765
p1238
ssL484L
(dp1239
g3
VStaples
p1240
sg5
I2
sg6
VLow Stock
p1241
sg8
V34231
p1242
sg10
V\u000ABeneva Plaza\u000A8199 Tamiami Trail South\u000ASarasota \u000AFL\u000A34231\u000A
p1243
sg12
VFL
p1244
sg14
V0206
p1245
sg16
V27.234500
p1246
sg18
V-82.498400
p1247
sg20
S'Monday, 07. May 2012 09:39PM'
p1248
sg22
L484L
ssL487L
(dp1249
g59
VBest Buy - Fort Lauderdale
p1250
sg34
I3
sg61
S'543'
p1251
sg36
S'Thursday, 10. May 2012 09:31PM'
p1252
sg35
L487L
sg64
I01
sg65
V33306
p1253
ssL456L
(dp1254
g59
VBest Buy - Melbourne
p1255
sg34
I3
sg61
S'512'
p1256
sg36
S'Thursday, 10. May 2012 09:31PM'
p1257
sg35
L456L
sg64
I01
sg65
V32904
p1258
ssL493L
(dp1259
g59
VBest Buy - West Palm Beach
p1260
sg34
I3
sg61
S'550'
p1261
sg36
S'Thursday, 10. May 2012 09:31PM'
p1262
sg35
L493L
sg64
I01
sg65
V33401
p1263
ssL494L
(dp1264
g59
VBest Buy - Sawgrass
p1265
sg34
I3
sg61
S'551'
p1266
sg36
S'Thursday, 10. May 2012 09:31PM'
p1267
sg35
L494L
sg64
I01
sg65
V33323
p1268
ssL495L
(dp1269
g59
VBest Buy - W. Kendall
p1270
sg34
I3
sg61
S'552'
p1271
sg36
S'Thursday, 10. May 2012 09:31PM'
p1272
sg35
L495L
sg64
I01
sg65
V33186
p1273
ssL1008L
(dp1274
g59
VBest Buy - Miami Beach
p1275
sg34
I3
sg61
S'1498'
p1276
sg36
S'Thursday, 10. May 2012 09:31PM'
p1277
sg35
L1008L
sg64
I01
sg65
V33139
p1278
ssL497L
(dp1279
g59
VBest Buy - Boca Raton
p1280
sg34
I3
sg61
S'554'
p1281
sg36
S'Thursday, 10. May 2012 09:31PM'
p1282
sg35
L497L
sg64
I01
sg65
V33498
p1283
ssL498L
(dp1284
g59
VBest Buy - Hialeah
p1285
sg34
I3
sg61
S'555'
p1286
sg36
S'Thursday, 10. May 2012 09:31PM'
p1287
sg35
L498L
sg64
I01
sg65
V33012
p1288
ssL1011L
(dp1289
g59
VBest Buy - Doral
p1290
sg34
I3
sg61
S'1502'
p1291
sg36
S'Thursday, 10. May 2012 09:31PM'
p1292
sg35
L1011L
sg64
I01
sg65
V33172
p1293
ssL1012L
(dp1294
g59
VBest Buy - Pinecrest
p1295
sg34
I3
sg61
S'1503'
p1296
sg36
S'Thursday, 10. May 2012 09:31PM'
p1297
sg35
L1012L
sg64
I01
sg65
V33156
p1298
ssL501L
(dp1299
g34
Nsg35
L501L
sg36
S'Thursday, 10. May 2012 09:31PM'
p1300
ssL502L
(dp1301
g34
Nsg35
L502L
sg36
S'Thursday, 10. May 2012 09:31PM'
p1302
ssL503L
(dp1303
g59
VBest Buy - Brandon
p1304
sg34
I3
sg61
S'560'
p1305
sg36
S'Thursday, 10. May 2012 09:31PM'
p1306
sg35
L503L
sg64
I01
sg65
V33510
p1307
ssL1016L
(dp1308
g34
Nsg35
L1016L
sg36
S'Thursday, 10. May 2012 09:31PM'
p1309
ssL505L
(dp1310
g59
VBest Buy - Sarasota
p1311
sg34
I3
sg61
S'562'
p1312
sg36
S'Thursday, 10. May 2012 09:31PM'
p1313
sg35
L505L
sg64
I01
sg65
V34231
p1314
ssL506L
(dp1315
g59
VBest Buy - Lakeland
p1316
sg34
I3
sg61
S'563'
p1317
sg36
S'Thursday, 10. May 2012 09:31PM'
p1318
sg35
L506L
sg64
I01
sg65
V33809
p1319
ssL1019L
(dp1320
g3
VStaples
p1321
sg5
I2
sg6
VLow Stock
p1322
sg8
V34689
p1323
sg10
V\u000A\u000A41334 North Hwy 19\u000ATarpon Springs \u000AFL\u000A34689\u000A
p1324
sg12
VFL
p1325
sg14
V0882
p1326
sg16
V28.147510
p1327
sg18
V-82.741400
p1328
sg20
S'Monday, 07. May 2012 09:39PM'
p1329
sg22
L1019L
ssL508L
(dp1330
g34
Nsg35
L508L
sg36
S'Thursday, 10. May 2012 09:31PM'
p1331
ss.