(dp1
L1024L
(dp2
S'name'
p3
VStaples
p4
sS'availcode'
p5
I2
sS'availbility'
p6
VLow Stock
p7
sS'zipcode'
p8
V33612
p9
sS'store_name'
p10
V\u000A\u000A11806 Bruce B. Downs Blvd.\u000ATampa \u000AFL\u000A33612\u000A
p11
sS'state'
p12
VFL
p13
sS'num'
p14
V0209
p15
sS'lat'
p16
V28.053660
p17
sS'lng'
p18
V-82.426480
p19
sS'last_update'
p20
S'Monday, 07. May 2012 09:45PM'
p21
sS'id'
p22
L1024L
ssL1L
(dp23
g3
VStaples
p24
sg5
I3
sg6
VIn Stock
p25
sg8
V32250
p26
sg10
V\u000A\u000A4016 South Third Street\u000AJacksonville Beach \u000AFL\u000A32250\u000A
p27
sg12
VFL
p28
sg14
V1915
p29
sg16
V30.256190
p30
sg18
V-81.388800
p31
sg20
S'Monday, 07. May 2012 09:45PM'
p32
sg22
L1L
ssL1027L
(dp33
g3
VStaples
p34
sg5
I3
sg6
VIn Stock
p35
sg8
V32707
p36
sg10
V\u000ACasselberry Exchange\u000A5779 S. Hwy. 17-92\u000ACasselberry \u000AFL\u000A32707\u000A
p37
sg12
VFL
p38
sg14
V0214
p39
sg16
V28.661600
p40
sg18
V-81.341380
p41
sg20
S'Monday, 07. May 2012 09:45PM'
p42
sg22
L1027L
ssL5L
(dp43
g3
VStaples
p44
sg5
I3
sg6
VIn Stock
p45
sg8
V33511
p46
sg10
V\u000ARegency Square\u000A2424 W. Brandon Blvd.\u000ABrandon \u000AFL\u000A33511\u000A
p47
sg12
VFL
p48
sg14
V0210
p49
sg16
V27.938520
p50
sg18
V-82.322300
p51
sg20
S'Monday, 07. May 2012 09:45PM'
p52
sg22
L5L
ssL1035L
(dp53
g3
VStaples
p54
sg5
I2
sg6
VLow Stock
p55
sg8
V32114
p56
sg10
V\u000A\u000A2500 W. International Speedway Blvd.\u000ADaytona Beach \u000AFL\u000A32114\u000A
p57
sg12
VFL
p58
sg14
V1092
p59
sg16
V29.179630
p60
sg18
V-81.083020
p61
sg20
S'Monday, 07. May 2012 09:45PM'
p62
sg22
L1035L
ssL12L
(dp63
g3
VStaples
p64
sg5
I2
sg6
VLow Stock
p65
sg8
V33765
p66
sg10
V\u000ASunset Point Center\u000A23660 U.S. Hwy 19 N.\u000AClearwater \u000AFL\u000A33765\u000A
p67
sg12
VFL
p68
sg14
V0203
p69
sg16
V27.988150
p70
sg18
V-82.730660
p71
sg20
S'Monday, 07. May 2012 09:45PM'
p72
sg22
L12L
ssL7696L
(dp73
S'availcode'
p74
NsS'id'
p75
L7696L
sS'last_update'
p76
S'Thursday, 10. May 2012 09:36PM'
p77
ssL7697L
(dp78
g74
Nsg75
L7697L
sg76
S'Thursday, 10. May 2012 09:36PM'
p79
ssL1044L
(dp80
g3
VStaples
p81
sg5
I3
sg6
VIn Stock
p82
sg8
V33186
p83
sg10
V\u000ACarter Square\u000A13640 North Kendall Drive\u000AMiami \u000AFL\u000A33186\u000A
p84
sg12
VFL
p85
sg14
V1721
p86
sg16
V25.684520
p87
sg18
V-80.415700
p88
sg20
S'Monday, 07. May 2012 09:45PM'
p89
sg22
L1044L
ssL24L
(dp90
g3
VStaples
p91
sg5
I3
sg6
VIn Stock
p92
sg8
V34470
p93
sg10
V\u000A\u000A1901 East Silversprings Blvd\u000AOcala \u000AFL\u000A34470\u000A
p94
sg12
VFL
p95
sg14
V0235
p96
sg16
V29.186500
p97
sg18
V-82.112000
p98
sg20
S'Monday, 07. May 2012 09:45PM'
p99
sg22
L24L
ssL8729L
(dp100
g74
I3
sS'num'
p101
V2196
p102
sS'name'
p103
VMiami Lakes
p104
sg76
S'Thursday, 10. May 2012 09:36PM'
p105
sg75
L8729L
sS'availbility'
p106
VAvailable
p107
ssL26L
(dp108
g3
VStaples
p109
sg5
I0
sg6
VNot sold at this location
p110
sg8
V33326
p111
sg10
V\u000A\u000A15860 W SR 84\u000ASunrise \u000AFL\u000A33326\u000A
p112
sg12
VFL
p113
sg14
V1738
p114
sg16
V26.123840
p115
sg18
V-80.360430
p116
sg20
S'Monday, 07. May 2012 09:45PM'
p117
sg22
L26L
ssL27L
(dp118
g3
VStaples
p119
sg5
I0
sg6
VNot sold at this location
p120
sg8
V33913
p121
sg10
V\u000A(Located at A1-75 and Alico Rd.)\u000A10016 Gulf Center Drive\u000AFort Myers \u000AFL\u000A33913\u000A
p122
sg12
VFL
p123
sg14
V1625
p124
sg16
V26.491630
p125
sg18
V-81.791377
p126
sg20
S'Monday, 07. May 2012 09:45PM'
p127
sg22
L27L
ssL31L
(dp128
g3
VStaples
p129
sg5
I2
sg6
VLow Stock
p130
sg8
V32034
p131
sg10
V\u000A\u000A1836 South 8th Street\u000AFernandina Beach \u000AFL\u000A32034\u000A
p132
sg12
VFL
p133
sg14
V1063
p134
sg16
V30.642590
p135
sg18
V-81.458600
p136
sg20
S'Monday, 07. May 2012 09:45PM'
p137
sg22
L31L
ssL546L
(dp138
g3
VStaples
p139
sg5
I2
sg6
VLow Stock
p140
sg8
V33145
p141
sg10
V\u000A\u000A2120 SW 32nd Avenue\u000ACoral Gables \u000AFL\u000A33145\u000A
p142
sg12
VFL
p143
sg14
V1668
p144
sg16
V25.750520
p145
sg18
V-80.246060
p146
sg20
S'Monday, 07. May 2012 09:45PM'
p147
sg22
L546L
ssL8740L
(dp148
g74
I3
sg101
V2208
p149
sg103
VPier Park
p150
sg76
S'Thursday, 10. May 2012 09:36PM'
p151
sg75
L8740L
sg106
VAvailable
p152
ssL8741L
(dp153
g74
I3
sg101
V2209
p154
sg103
VSuncoast Pasco County
p155
sg76
S'Thursday, 10. May 2012 09:36PM'
p156
sg75
L8741L
sg106
VAvailable
p157
ssL8742L
(dp158
g74
I3
sg101
V2210
p159
sg103
VBoynton Beach SE
p160
sg76
S'Thursday, 10. May 2012 09:36PM'
p161
sg75
L8742L
sg106
VAvailable
p162
ssL7719L
(dp163
g74
Nsg75
L7719L
sg76
S'Thursday, 10. May 2012 09:36PM'
p164
ssL7720L
(dp165
g74
Nsg75
L7720L
sg76
S'Thursday, 10. May 2012 09:36PM'
p166
ssL7721L
(dp167
g74
Nsg75
L7721L
sg76
S'Thursday, 10. May 2012 09:36PM'
p168
ssL8541L
(dp169
g74
I3
sg101
V1973
p170
sg103
VTallahassee North
p171
sg76
S'Thursday, 10. May 2012 09:36PM'
p172
sg75
L8541L
sg106
VAvailable
p173
ssL48L
(dp174
g3
VStaples
p175
sg5
I3
sg6
VIn Stock
p176
sg8
V32746
p177
sg10
V\u000A\u000A4215 Lake Mary Blvd.\u000ALake Mary \u000AFL\u000A32746\u000A
p178
sg12
VFL
p179
sg14
V1038
p180
sg16
V28.755200
p181
sg18
V-81.347700
p182
sg20
S'Monday, 07. May 2012 09:45PM'
p183
sg22
L48L
ssL1073L
(dp184
g3
VStaples
p185
sg5
I2
sg6
VLow Stock
p186
sg8
V34606
p187
sg10
V\u000A\u000A4210 Commercial Way\u000ASpring Hill \u000AFL\u000A34606\u000A
p188
sg12
VFL
p189
sg14
V1058
p190
sg16
V28.493650
p191
sg18
V-82.597060
p192
sg20
S'Monday, 07. May 2012 09:45PM'
p193
sg22
L1073L
ssL562L
(dp194
g3
VStaples
p195
sg5
I3
sg6
VIn Stock
p196
sg8
V32137
p197
sg10
V\u000A\u000A9 Old Kings Road\u000APalm Coast \u000AFL\u000A32137\u000A
p198
sg12
VFL
p199
sg14
V1068
p200
sg16
V29.557200
p201
sg18
V-81.218100
p202
sg20
S'Monday, 07. May 2012 09:45PM'
p203
sg22
L562L
ssL51L
(dp204
g3
VStaples
p205
sg5
I0
sg6
VNot sold at this location
p206
sg8
V33426
p207
sg10
V\u000A\u000A1540 S. W. 8th Street\u000ABoynton Beach \u000AFL\u000A33426\u000A
p208
sg12
VFL
p209
sg14
V1194
p210
sg16
V26.515640
p211
sg18
V-80.076530
p212
sg20
S'Monday, 07. May 2012 09:45PM'
p213
sg22
L51L
ssL8286L
(dp214
g74
I3
sg101
V1512
p215
sg103
VMiramar
p216
sg76
S'Thursday, 10. May 2012 09:36PM'
p217
sg75
L8286L
sg106
VAvailable
p218
ssL1078L
(dp219
g3
VStaples
p220
sg5
I3
sg6
VIn Stock
p221
sg8
V32818
p222
sg10
V\u000A\u000A867 Good Homes Rd\u000AOrlando \u000AFL\u000A32818\u000A
p223
sg12
VFL
p224
sg14
V1029
p225
sg16
V28.552300
p226
sg18
V-81.504510
p227
sg20
S'Monday, 07. May 2012 09:45PM'
p228
sg22
L1078L
ssL1081L
(dp229
g3
VStaples
p230
sg5
I3
sg6
VIn Stock
p231
sg8
V33139
p232
sg10
V\u000A\u000A1139 5th Street\u000AMiami Beach \u000AFL\u000A33139\u000A
p233
sg12
VFL
p234
sg14
V1849
p235
sg16
V25.774600
p236
sg18
V-80.139740
p237
sg20
S'Monday, 07. May 2012 09:45PM'
p238
sg22
L1081L
ssL7738L
(dp239
g74
Nsg75
L7738L
sg76
S'Thursday, 10. May 2012 09:36PM'
p240
ssL7739L
(dp241
g74
Nsg75
L7739L
sg76
S'Thursday, 10. May 2012 09:36PM'
p242
ssL60L
(dp243
g3
VStaples
p244
sg5
I2
sg6
VLow Stock
p245
sg8
V33033
p246
sg10
V\u000A\u000A2631 NE 10th Ct\u000AHomestead \u000AFL\u000A33033\u000A
p247
sg12
VFL
p248
sg14
V1892
p249
sg16
V25.478210
p250
sg18
V-80.441000
p251
sg20
S'Monday, 07. May 2012 09:45PM'
p252
sg22
L60L
ssL8766L
(dp253
g74
I3
sg101
V2235
p254
sg103
VBrandon South
p255
sg76
S'Thursday, 10. May 2012 09:36PM'
p256
sg75
L8766L
sg106
VAvailable
p257
ssL8255L
(dp258
g74
I3
sg101
V1480
p259
sg103
VPlantation
p260
sg76
S'Thursday, 10. May 2012 09:36PM'
p261
sg75
L8255L
sg106
VAvailable
p262
ssL69L
(dp263
g3
VStaples
p264
sg5
I2
sg6
VLow Stock
p265
sg8
V32177
p266
sg10
V\u000A\u000A327 Highway 19 North\u000APalatka \u000AFL\u000A32177\u000A
p267
sg12
VFL
p268
sg14
V1056
p269
sg16
V29.651510
p270
sg18
V-81.672410
p271
sg20
S'Monday, 07. May 2012 09:45PM'
p272
sg22
L69L
ssL582L
(dp273
g3
VStaples
p274
sg5
I2
sg6
VLow Stock
p275
sg8
V32207
p276
sg10
V\u000A\u000A5800 Beach Blvd.\u000AJacksonville \u000AFL\u000A32207\u000A
p277
sg12
VFL
p278
sg14
V1053
p279
sg16
V30.293000
p280
sg18
V-81.604400
p281
sg20
S'Monday, 07. May 2012 09:45PM'
p282
sg22
L582L
ssL8778L
(dp283
g74
I2
sg101
V2248
p284
sg103
VPort St Lucie
p285
sg76
S'Thursday, 10. May 2012 09:36PM'
p286
sg75
L8778L
sg106
VLimited Availability
p287
ssL8271L
(dp288
g74
I3
sg101
V1497
p289
sg103
VFleming Island
p290
sg76
S'Thursday, 10. May 2012 09:36PM'
p291
sg75
L8271L
sg106
VAvailable
p292
ssL595L
(dp293
g3
VStaples
p294
sg5
I2
sg6
VLow Stock
p295
sg8
V33542
p296
sg10
V\u000A\u000A7910 Gall Blvd\u000AZephyrhills \u000AFL\u000A33542\u000A
p297
sg12
VFL
p298
sg14
V1899
p299
sg16
V28.272850
p300
sg18
V-82.187500
p301
sg20
S'Monday, 07. May 2012 09:45PM'
p302
sg22
L595L
ssL8277L
(dp303
g74
I3
sg101
V1503
p304
sg103
VOrange Park
p305
sg76
S'Thursday, 10. May 2012 09:36PM'
p306
sg75
L8277L
sg106
VAvailable
p307
ssL598L
(dp308
g3
VStaples
p309
sg5
I0
sg6
VNot sold at this location
p310
sg8
V33025
p311
sg10
V\u000AWest Miramar at Flamingo Road\u000A12216 Miramar Parkway\u000AMiramar \u000AFL\u000A33025\u000A
p312
sg12
VFL
p313
sg14
V1875
p314
sg16
V25.978370
p315
sg18
V-80.309760
p316
sg20
S'Monday, 07. May 2012 09:45PM'
p317
sg22
L598L
ssL8793L
(dp318
g74
I3
sg101
V2264
p319
sg103
VWinter Garden
p320
sg76
S'Thursday, 10. May 2012 09:36PM'
p321
sg75
L8793L
sg106
VAvailable
p322
ssL8794L
(dp323
g74
I0
sg101
V2265
p324
sg103
VCoral Springs NW
p325
sg76
S'Thursday, 10. May 2012 09:36PM'
p326
sg75
L8794L
sg106
VOut Of Stock
p327
ssL93L
(dp328
g3
VStaples
p329
sg5
I0
sg6
VNot sold at this location
p330
sg8
V33761
p331
sg10
V\u000A\u000A30190 US Highway 19N\u000AClearwater \u000AFL\u000A33761\u000A
p332
sg12
VFL
p333
sg14
V1544
p334
sg16
V28.048100
p335
sg18
V-82.739270
p336
sg20
S'Monday, 07. May 2012 09:45PM'
p337
sg22
L93L
ssL8798L
(dp338
g74
I3
sg101
V2269
p339
sg103
VTitusville
p340
sg76
S'Thursday, 10. May 2012 09:36PM'
p341
sg75
L8798L
sg106
VAvailable
p342
ssL7777L
(dp343
g74
Nsg75
L7777L
sg76
S'Thursday, 10. May 2012 09:36PM'
p344
ssL7778L
(dp345
g74
Nsg75
L7778L
sg76
S'Thursday, 10. May 2012 09:36PM'
p346
ssL7867L
(dp347
g74
I3
sg101
V1074
p348
sg103
VAventura
p349
sg76
S'Thursday, 10. May 2012 09:36PM'
p350
sg75
L7867L
sg106
VAvailable
p351
ssL8292L
(dp352
g74
I3
sg101
V1518
p353
sg103
VOrlando Millenia
p354
sg76
S'Thursday, 10. May 2012 09:36PM'
p355
sg75
L8292L
sg106
VAvailable
p356
ssL8293L
(dp357
g74
I3
sg101
V1519
p358
sg103
VClermont
p359
sg76
S'Thursday, 10. May 2012 09:36PM'
p360
sg75
L8293L
sg106
VAvailable
p361
ssL8721L
(dp362
g74
I3
sg101
V2188
p363
sg103
VMiami Central
p364
sg76
S'Thursday, 10. May 2012 09:36PM'
p365
sg75
L8721L
sg106
VAvailable
p366
ssL616L
(dp367
g3
VStaples
p368
sg5
I0
sg6
VNot sold at this location
p369
sg8
V34209
p370
sg10
V\u000A\u000A7210 Manatee Ave.\u000ABradenton \u000AFL\u000A34209\u000A
p371
sg12
VFL
p372
sg14
V1246
p373
sg16
V27.496590
p374
sg18
V-82.635160
p375
sg20
S'Monday, 07. May 2012 09:45PM'
p376
sg22
L616L
ssL1132L
(dp377
g3
VStaples
p378
sg5
I0
sg6
VNot sold at this location
p379
sg8
V33064
p380
sg10
V\u000A\u000A3742 North Federal Highway\u000ALighthouse Point \u000AFL\u000A33064\u000A
p381
sg12
VFL
p382
sg14
V1726
p383
sg16
V26.277530
p384
sg18
V-80.097570
p385
sg20
S'Monday, 07. May 2012 09:45PM'
p386
sg22
L1132L
ssL8815L
(dp387
g74
I3
sg101
V2289
p388
sg103
VTampa West
p389
sg76
S'Thursday, 10. May 2012 09:36PM'
p390
sg75
L8815L
sg106
VAvailable
p391
ssL8808L
(dp392
g74
I3
sg101
V2279
p393
sg103
VPace
p394
sg76
S'Thursday, 10. May 2012 09:36PM'
p395
sg75
L8808L
sg106
VAvailable
p396
ssL631L
(dp397
g3
VStaples
p398
sg5
I0
sg6
VNot sold at this location
p399
sg8
V32246
p400
sg10
V\u000A\u000A10261 River Marsh Drive\u000AJacksonville \u000AFL\u000A32246\u000A
p401
sg12
VFL
p402
sg14
V1616
p403
sg16
V30.253950
p404
sg18
V-81.523050
p405
sg20
S'Monday, 07. May 2012 09:45PM'
p406
sg22
L631L
ssL632L
(dp407
g3
VStaples
p408
sg5
I-1
sg6
VOut of Stock
p409
sg8
V32780
p410
sg10
V\u000A\u000A3155 Columbia Blvd.\u000ATitusville \u000AFL\u000A32780\u000A
p411
sg12
VFL
p412
sg14
V1081
p413
sg16
V28.553000
p414
sg18
V-80.845800
p415
sg20
S'Monday, 07. May 2012 09:45PM'
p416
sg22
L632L
ssL7700L
(dp417
g74
Nsg75
L7700L
sg76
S'Thursday, 10. May 2012 09:36PM'
p418
ssL635L
(dp419
g3
VStaples
p420
sg5
I0
sg6
VNot sold at this location
p421
sg8
V33165
p422
sg10
V\u000A\u000A8859 S.W. 24th St.\u000AMiami \u000AFL\u000A33165\u000A
p423
sg12
VFL
p424
sg14
V1656
p425
sg16
V25.747510
p426
sg18
V-80.339050
p427
sg20
S'Monday, 07. May 2012 09:45PM'
p428
sg22
L635L
ssL636L
(dp429
g3
VStaples
p430
sg5
I0
sg6
VNot sold at this location
p431
sg8
V34109
p432
sg10
V\u000A\u000A6305 Naples Blvd.\u000ANaples \u000AFL\u000A34109\u000A
p433
sg12
VFL
p434
sg14
V1207
p435
sg16
V26.219610
p436
sg18
V-81.772590
p437
sg20
S'Monday, 07. May 2012 09:45PM'
p438
sg22
L636L
ssL7531L
(dp439
g74
Nsg75
L7531L
sg76
S'Thursday, 10. May 2012 09:36PM'
p440
ssL645L
(dp441
g3
VStaples
p442
sg5
I0
sg6
VNot sold at this location
p443
sg8
V33162
p444
sg10
V\u000A\u000A735 NE 167th St.\u000ANorth Miami Beach \u000AFL\u000A33162\u000A
p445
sg12
VFL
p446
sg14
V1736
p447
sg16
V25.929290
p448
sg18
V-80.185810
p449
sg20
S'Monday, 07. May 2012 09:45PM'
p450
sg22
L645L
ssL8838L
(dp451
g74
I3
sg101
V2316
p452
sg103
VCape Coral North
p453
sg76
S'Thursday, 10. May 2012 09:36PM'
p454
sg75
L8838L
sg106
VAvailable
p455
ssL8839L
(dp456
g74
I3
sg101
V2317
p457
sg103
VCoconut Point
p458
sg76
S'Thursday, 10. May 2012 09:36PM'
p459
sg75
L8839L
sg106
VAvailable
p460
ssL7817L
(dp461
g74
I3
sg101
V1023
p462
sg103
VPark &amp; Tyrone
p463
sg76
S'Thursday, 10. May 2012 09:36PM'
p464
sg75
L7817L
sg106
VAvailable
p465
ssL8332L
(dp466
g74
I3
sg101
V1760
p467
sg103
VWaterford Lakes
p468
sg76
S'Thursday, 10. May 2012 09:36PM'
p469
sg75
L8332L
sg106
VAvailable
p470
ssL142L
(dp471
g3
VStaples
p472
sg5
I2
sg6
VLow Stock
p473
sg8
V33647
p474
sg10
V\u000A\u000A6260 Commerce Palms\u000ANew Tampa \u000AFL\u000A33647\u000A
p475
sg12
VFL
p476
sg14
V1680
p477
sg16
V28.119890
p478
sg18
V-82.375120
p479
sg20
S'Monday, 07. May 2012 09:45PM'
p480
sg22
L142L
ssL655L
(dp481
g3
VStaples
p482
sg5
I2
sg6
VLow Stock
p483
sg8
V33907
p484
sg10
V\u000ACypress Lake Shopping Center\u000A7191-3 Cypress Lake Drive\u000AFt. Myers \u000AFL\u000A33907\u000A
p485
sg12
VFL
p486
sg14
V1209
p487
sg16
V26.544070
p488
sg18
V-81.873700
p489
sg20
S'Monday, 07. May 2012 09:45PM'
p490
sg22
L655L
ssL144L
(dp491
g3
VStaples
p492
sg5
I0
sg6
VNot sold at this location
p493
sg8
V33073
p494
sg10
V\u000A\u000A4301 W. Hillsboro Boulevard\u000ACoconut Creek \u000AFL\u000A33073\u000A
p495
sg12
VFL
p496
sg14
V1728
p497
sg16
V26.317660
p498
sg18
V-80.183860
p499
sg20
S'Monday, 07. May 2012 09:45PM'
p500
sg22
L144L
ssL147L
(dp501
g3
VStaples
p502
sg5
I2
sg6
VLow Stock
p503
sg8
V32086
p504
sg10
V\u000A\u000A1940 US Highway 1 South\u000ASt. Augustine \u000AFL\u000A32086\u000A
p505
sg12
VFL
p506
sg14
V1071
p507
sg16
V29.865800
p508
sg18
V-81.323400
p509
sg20
S'Monday, 07. May 2012 09:45PM'
p510
sg22
L147L
ssL560L
(dp511
g3
VStaples
p512
sg5
I3
sg6
VIn Stock
p513
sg8
V34787
p514
sg10
V\u000A\u000A3065 Daniels Road\u000AWinter Garden \u000AFL\u000A34787\u000A
p515
sg12
VFL
p516
sg14
V1740
p517
sg16
V28.522030
p518
sg18
V-81.589540
p519
sg20
S'Monday, 07. May 2012 09:45PM'
p520
sg22
L560L
ssL150L
(dp521
g3
VStaples
p522
sg5
I0
sg6
VNot sold at this location
p523
sg8
V32223
p524
sg10
V\u000A\u000A11111 San Jose Blvd.  Suite 56\u000AJacksonville \u000AFL\u000A32223\u000A
p525
sg12
VFL
p526
sg14
V1884
p527
sg16
V30.173420
p528
sg18
V-81.627900
p529
sg20
S'Monday, 07. May 2012 09:45PM'
p530
sg22
L150L
ssL7832L
(dp531
g74
I3
sg101
V1038
p532
sg103
VNorth Miami
p533
sg76
S'Thursday, 10. May 2012 09:36PM'
p534
sg75
L7832L
sg106
VAvailable
p535
ssL665L
(dp536
g3
VStaples
p537
sg5
I0
sg6
VNot sold at this location
p538
sg8
V33157
p539
sg10
V\u000A\u000A18591 South Dixie Highway\u000ACutler Bay \u000AFL\u000A33157\u000A
p540
sg12
VFL
p541
sg14
V1778
p542
sg16
V25.596590
p543
sg18
V-80.354750
p544
sg20
S'Monday, 07. May 2012 09:45PM'
p545
sg22
L665L
ssL154L
(dp546
g3
VStaples
p547
sg5
I0
sg6
VNot sold at this location
p548
sg8
V34113
p549
sg10
V\u000A\u000A12632 East Tamiami Trail\u000ANaples \u000AFL\u000A34113\u000A
p550
sg12
VFL
p551
sg14
V1775
p552
sg16
V26.063210
p553
sg18
V-81.700110
p554
sg20
S'Monday, 07. May 2012 09:45PM'
p555
sg22
L154L
ssL667L
(dp556
g3
VStaples
p557
sg5
I2
sg6
VLow Stock
p558
sg8
V34741
p559
sg10
V\u000A\u000A101 West Vine St.\u000AKissimmee \u000AFL\u000A34741\u000A
p560
sg12
VFL
p561
sg14
V1032
p562
sg16
V28.305000
p563
sg18
V-81.404710
p564
sg20
S'Monday, 07. May 2012 09:45PM'
p565
sg22
L667L
ssL8350L
(dp566
g74
I3
sg101
V1778
p567
sg103
VLauderhill
p568
sg76
S'Thursday, 10. May 2012 09:36PM'
p569
sg75
L8350L
sg106
VAvailable
p570
ssL164L
(dp571
g3
VStaples
p572
sg5
I3
sg6
VIn Stock
p573
sg8
V32905
p574
sg10
V\u000A\u000A1595 Palm Bay Rd.\u000APalm Bay \u000AFL\u000A32905\u000A
p575
sg12
VFL
p576
sg14
V1057
p577
sg16
V28.035420
p578
sg18
V-80.622290
p579
sg20
S'Monday, 07. May 2012 09:45PM'
p580
sg22
L164L
ssL7845L
(dp581
g74
I3
sg101
V1051
p582
sg103
VGandy
p583
sg76
S'Thursday, 10. May 2012 09:36PM'
p584
sg75
L7845L
sg106
VAvailable
p585
ssL7847L
(dp586
g74
I3
sg101
V1053
p587
sg103
VMerritt Island
p588
sg76
S'Thursday, 10. May 2012 09:36PM'
p589
sg75
L7847L
sg106
VAvailable
p590
ssL8361L
(dp591
g74
I3
sg101
V1790
p592
sg103
VHunters Creek
p593
sg76
S'Thursday, 10. May 2012 09:36PM'
p594
sg75
L8361L
sg106
VAvailable
p595
ssL172L
(dp596
g3
VStaples
p597
sg5
I0
sg6
VNot sold at this location
p598
sg8
V33411
p599
sg10
V\u000A(Wellington)\u000A10465 Southern Blvd\u000ARoyal Palm Beach \u000AFL\u000A33411\u000A
p600
sg12
VFL
p601
sg14
V1862
p602
sg16
V26.681230
p603
sg18
V-80.208570
p604
sg20
S'Monday, 07. May 2012 09:45PM'
p605
sg22
L172L
ssL8366L
(dp606
g74
I2
sg101
V1795
p607
sg103
VPort Orange
p608
sg76
S'Thursday, 10. May 2012 09:36PM'
p609
sg75
L8366L
sg106
VLimited Availability
p610
ssL8882L
(dp611
g74
I3
sg101
V2363
p612
sg103
VFort Myers SW
p613
sg76
S'Thursday, 10. May 2012 09:36PM'
p614
sg75
L8882L
sg106
VAvailable
p615
ssL8883L
(dp616
g74
I0
sg101
V2364
p617
sg103
VPalm Coast
p618
sg76
S'Thursday, 10. May 2012 09:36PM'
p619
sg75
L8883L
sg106
VOut Of Stock
p620
ssL8885L
(dp621
g74
I3
sg101
V2366
p622
sg103
VNE Polk County
p623
sg76
S'Thursday, 10. May 2012 09:36PM'
p624
sg75
L8885L
sg106
VAvailable
p625
ssL1207L
(dp626
g3
VStaples
p627
sg5
I2
sg6
VLow Stock
p628
sg8
V33809
p629
sg10
V\u000AShoppes at Lakeland\u000A4011 US Highway 98 North\u000ALakeland \u000AFL\u000A33809\u000A
p630
sg12
VFL
p631
sg14
V0205
p632
sg16
V28.093524
p633
sg18
V-81.973717
p634
sg20
S'Monday, 07. May 2012 09:45PM'
p635
sg22
L1207L
ssL8888L
(dp636
g74
I3
sg101
V2369
p637
sg103
VFort Myers North
p638
sg76
S'Thursday, 10. May 2012 09:36PM'
p639
sg75
L8888L
sg106
VAvailable
p640
ssL8889L
(dp641
g74
I3
sg101
V2370
p642
sg103
VOrlando SW
p643
sg76
S'Thursday, 10. May 2012 09:36PM'
p644
sg75
L8889L
sg106
VAvailable
p645
ssL287L
(dp646
g3
VStaples
p647
sg5
I2
sg6
VLow Stock
p648
sg8
V33477
p649
sg10
V\u000AThe Shoppes At Jupiter\u000A201 North US 1\u000AJupiter \u000AFL\u000A33477\u000A
p650
sg12
VFL
p651
sg14
V0415
p652
sg16
V26.936300
p653
sg18
V-80.081400
p654
sg20
S'Monday, 07. May 2012 09:45PM'
p655
sg22
L287L
ssL7868L
(dp656
g74
I3
sg101
V1075
p657
sg103
VCutler Ridge
p658
sg76
S'Thursday, 10. May 2012 09:36PM'
p659
sg75
L7868L
sg106
VAvailable
p660
ssL8895L
(dp661
g74
I3
sg101
V2376
p662
sg103
VOrlando - Sodo
p663
sg76
S'Thursday, 10. May 2012 09:36PM'
p664
sg75
L8895L
sg106
VAvailable
p665
ssL8390L
(dp666
g74
I3
sg101
V1820
p667
sg103
VClearwater
p668
sg76
S'Thursday, 10. May 2012 09:36PM'
p669
sg75
L8390L
sg106
VAvailable
p670
ssL210L
(dp671
g3
VStaples
p672
sg5
I0
sg6
VNot sold at this location
p673
sg8
V33764
p674
sg10
V\u000A\u000A10900 U.S. Hwy 19N\u000AClearwater \u000AFL\u000A33764\u000A
p675
sg12
VFL
p676
sg14
V0212
p677
sg16
V27.871500
p678
sg18
V-82.707200
p679
sg20
S'Monday, 07. May 2012 09:45PM'
p680
sg22
L210L
ssL7545L
(dp681
g74
Nsg75
L7545L
sg76
S'Thursday, 10. May 2012 09:36PM'
p682
ssL728L
(dp683
g3
VStaples
p684
sg5
I0
sg6
VNot sold at this location
p685
sg8
V32822
p686
sg10
V\u000AVista Palms\u000A7157 Narcoossee Road\u000AOrlando \u000AFL\u000A32822\u000A
p687
sg12
VFL
p688
sg14
V1901
p689
sg16
V28.464870
p690
sg18
V-81.273630
p691
sg20
S'Monday, 07. May 2012 09:45PM'
p692
sg22
L728L
ssL217L
(dp693
g3
VStaples
p694
sg5
I3
sg6
VIn Stock
p695
sg8
V33607
p696
sg10
V\u000AHorizon Park Plaza\u000A3702 West  Spruce St.\u000ATampa \u000AFL\u000A33607\u000A
p697
sg12
VFL
p698
sg14
V0201
p699
sg16
V27.958680
p700
sg18
V-82.507450
p701
sg20
S'Monday, 07. May 2012 09:45PM'
p702
sg22
L217L
ssL1243L
(dp703
g3
VStaples
p704
sg5
I0
sg6
VNot sold at this location
p705
sg8
V34119
p706
sg10
V\u000A\u000A2415 Tarpon Bay Blvd No. 4\u000ANaples \u000AFL\u000A34119\u000A
p707
sg12
VFL
p708
sg14
V1747
p709
sg16
V26.272130
p710
sg18
V-81.738420
p711
sg20
S'Monday, 07. May 2012 09:45PM'
p712
sg22
L1243L
ssL1244L
(dp713
g3
VStaples
p714
sg5
I0
sg6
VNot sold at this location
p715
sg8
V32065
p716
sg10
V\u000A\u000A700-16 South Blanding Blvd.\u000AOrange Park \u000AFL\u000A32065\u000A
p717
sg12
VFL
p718
sg14
V1066
p719
sg16
V30.146800
p720
sg18
V-81.759600
p721
sg20
S'Monday, 07. May 2012 09:45PM'
p722
sg22
L1244L
ssL7901L
(dp723
g74
I3
sg101
V1110
p724
sg103
VGreenacres
p725
sg76
S'Thursday, 10. May 2012 09:36PM'
p726
sg75
L7901L
sg106
VAvailable
p727
ssL8229L
(dp728
g74
I3
sg101
V1454
p729
sg103
VCape Coral
p730
sg76
S'Thursday, 10. May 2012 09:36PM'
p731
sg75
L8229L
sg106
VAvailable
p732
ssL736L
(dp733
g3
VStaples
p734
sg5
I0
sg6
VNot sold at this location
p735
sg8
V33990
p736
sg10
V\u000A\u000A1631 Del Prado Blvd.\u000ACape Coral \u000AFL\u000A33990\u000A
p737
sg12
VFL
p738
sg14
V1206
p739
sg16
V26.621270
p740
sg18
V-81.940050
p741
sg20
S'Monday, 07. May 2012 09:45PM'
p742
sg22
L736L
ssL740L
(dp743
g3
VStaples
p744
sg5
I0
sg6
VNot sold at this location
p745
sg8
V34207
p746
sg10
V\u000A\u000A5627 14th Street West\u000ABradenton \u000AFL\u000A34207\u000A
p747
sg12
VFL
p748
sg14
V0191
p749
sg16
V27.440500
p750
sg18
V-82.575200
p751
sg20
S'Monday, 07. May 2012 09:45PM'
p752
sg22
L740L
ssL229L
(dp753
g3
VStaples
p754
sg5
I0
sg6
VNot sold at this location
p755
sg8
V33156
p756
sg10
V\u000A\u000A9801 South Dixie Hwy (US 1)\u000APinecrest \u000AFL\u000A33156\u000A
p757
sg12
VFL
p758
sg14
V1672
p759
sg16
V25.679800
p760
sg18
V-80.317530
p761
sg20
S'Monday, 07. May 2012 09:45PM'
p762
sg22
L229L
ssL1255L
(dp763
g3
VStaples
p764
sg5
I2
sg6
VLow Stock
p765
sg8
V32303
p766
sg10
V\u000A\u000A2241 North Monroe Street\u000ATallahassee \u000AFL\u000A32303\u000A
p767
sg12
VFL
p768
sg14
V1072
p769
sg16
V30.470700
p770
sg18
V-84.289700
p771
sg20
S'Monday, 07. May 2012 09:45PM'
p772
sg22
L1255L
ssL7833L
(dp773
g74
I3
sg101
V1039
p774
sg103
VDadeland
p775
sg76
S'Thursday, 10. May 2012 09:36PM'
p776
sg75
L7833L
sg106
VAvailable
p777
ssL236L
(dp778
g3
VStaples
p779
sg5
I0
sg6
VNot sold at this location
p780
sg8
V33062
p781
sg10
V\u000AThe Marketplace at Pompano\u000AS. 1245 Federal Highway\u000APompano \u000AFL\u000A33062\u000A
p782
sg12
VFL
p783
sg14
V1729
p784
sg16
V26.214810
p785
sg18
V-80.105730
p786
sg20
S'Monday, 07. May 2012 09:45PM'
p787
sg22
L236L
ssL8429L
(dp788
g74
I3
sg101
V1859
p789
sg103
VLakeland North
p790
sg76
S'Thursday, 10. May 2012 09:36PM'
p791
sg75
L8429L
sg106
VAvailable
p792
ssL238L
(dp793
g3
VStaples
p794
sg5
I0
sg6
VNot sold at this location
p795
sg8
V33334
p796
sg10
V\u000A\u000A1707 E Commercial Blvd\u000AFt Lauderdale \u000AFL\u000A33334\u000A
p797
sg12
VFL
p798
sg14
V1752
p799
sg16
V26.189040
p800
sg18
V-80.124440
p801
sg20
S'Monday, 07. May 2012 09:45PM'
p802
sg22
L238L
ssL7919L
(dp803
g74
I3
sg101
V1131
p804
sg103
VSt Petersburg Gateway
p805
sg76
S'Thursday, 10. May 2012 09:36PM'
p806
sg75
L7919L
sg106
VAvailable
p807
ssL752L
(dp808
g3
VStaples
p809
sg5
I3
sg6
VIn Stock
p810
sg8
V34471
p811
sg10
V\u000A\u000A2497 South West 27th Avenue\u000AOcala \u000AFL\u000A34471\u000A
p812
sg12
VFL
p813
sg14
V1679
p814
sg16
V29.163050
p815
sg18
V-82.168590
p816
sg20
S'Monday, 07. May 2012 09:45PM'
p817
sg22
L752L
ssL241L
(dp818
g3
VStaples
p819
sg5
I2
sg6
VLow Stock
p820
sg8
V33409
p821
sg10
V\u000A\u000A2029 Okeechobee Blvd.\u000AWest Palm Beach \u000AFL\u000A33409\u000A
p822
sg12
VFL
p823
sg14
V1683
p824
sg16
V26.706560
p825
sg18
V-80.081400
p826
sg20
S'Monday, 07. May 2012 09:45PM'
p827
sg22
L241L
ssL244L
(dp828
g3
VStaples
p829
sg5
I2
sg6
VLow Stock
p830
sg8
V33618
p831
sg10
V\u000A\u000A15110 N. Dale Mabry\u000ATampa \u000AFL\u000A33618\u000A
p832
sg12
VFL
p833
sg14
V0945
p834
sg16
V28.085810
p835
sg18
V-82.505480
p836
sg20
S'Monday, 07. May 2012 09:45PM'
p837
sg22
L244L
ssL8577L
(dp838
g74
I3
sg101
V2032
p839
sg103
VOrlando East
p840
sg76
S'Thursday, 10. May 2012 09:36PM'
p841
sg75
L8577L
sg106
VAvailable
p842
ssL1274L
(dp843
g3
VStaples
p844
sg5
I-1
sg6
VOut of Stock
p845
sg8
V34769
p846
sg10
V\u000AThe Oaks Shopping Center\u000A4058 13th Street\u000ASt. Cloud \u000AFL\u000A34769\u000A
p847
sg12
VFL
p848
sg14
V1827
p849
sg16
V28.251380
p850
sg18
V-81.313180
p851
sg20
S'Monday, 07. May 2012 09:45PM'
p852
sg22
L1274L
ssL8956L
(dp853
g74
I3
sg101
V2445
p854
sg103
VPensacola West
p855
sg76
S'Thursday, 10. May 2012 09:36PM'
p856
sg75
L8956L
sg106
VAvailable
p857
ssL772L
(dp858
g3
VStaples
p859
sg5
I2
sg6
VLow Stock
p860
sg8
V33948
p861
sg10
V\u000A\u000A1825 Tamiami Trail\u000APort Charlotte \u000AFL\u000A33948\u000A
p862
sg12
VFL
p863
sg14
V0421
p864
sg16
V27.005200
p865
sg18
V-82.132400
p866
sg20
S'Monday, 07. May 2012 09:45PM'
p867
sg22
L772L
ssL1286L
(dp868
g3
VStaples
p869
sg5
I0
sg6
VNot sold at this location
p870
sg8
V33905
p871
sg10
V\u000AColonial Drive and I75\u000A3236 Forum Blvd\u000AFort Myers \u000AFL\u000A33905\u000A
p872
sg12
VFL
p873
sg14
V1861
p874
sg16
V26.615420
p875
sg18
V-81.799400
p876
sg20
S'Monday, 07. May 2012 09:45PM'
p877
sg22
L1286L
ssL263L
(dp878
g3
VStaples
p879
sg5
I3
sg6
VIn Stock
p880
sg8
V33837
p881
sg10
V\u000A\u000A3500 Posner Blvd.\u000ADavenport \u000AFL\u000A33837\u000A
p882
sg12
VFL
p883
sg14
V1843
p884
sg16
V28.232090
p885
sg18
V-81.649360
p886
sg20
S'Monday, 07. May 2012 09:45PM'
p887
sg22
L263L
ssL7639L
(dp888
g74
Nsg75
L7639L
sg76
S'Thursday, 10. May 2012 09:36PM'
p889
ssL7949L
(dp890
g74
I3
sg101
V1163
p891
sg103
VFt Lauderdale
p892
sg76
S'Thursday, 10. May 2012 09:36PM'
p893
sg75
L7949L
sg106
VAvailable
p894
ssL786L
(dp895
g3
VStaples
p896
sg5
I0
sg6
VNot sold at this location
p897
sg8
V32712
p898
sg10
V\u000AApopka Commons\u000A1626 West Orange Blossom Trail\u000AApopka \u000AFL\u000A32712\u000A
p899
sg12
VFL
p900
sg14
V1820
p901
sg16
V28.686850
p902
sg18
V-81.540820
p903
sg20
S'Monday, 07. May 2012 09:45PM'
p904
sg22
L786L
ssL7641L
(dp905
g74
Nsg75
L7641L
sg76
S'Thursday, 10. May 2012 09:36PM'
p906
ssL8990L
(dp907
g74
I3
sg101
V2489
p908
sg103
VSpring Hill East
p909
sg76
S'Thursday, 10. May 2012 09:36PM'
p910
sg75
L8990L
sg106
VAvailable
p911
ssL133L
(dp912
g3
VStaples
p913
sg5
I0
sg6
VNot sold at this location
p914
sg8
V34110
p915
sg10
V\u000A\u000A13585 N Tamiami Trail Ste 12\u000ANaples \u000AFL\u000A34110\u000A
p916
sg12
VFL
p917
sg14
V1624
p918
sg16
V26.294880
p919
sg18
V-81.804710
p920
sg20
S'Monday, 07. May 2012 09:45PM'
p921
sg22
L133L
ssL289L
(dp922
g3
VStaples
p923
sg5
I3
sg6
VIn Stock
p924
sg8
V32504
p925
sg10
V\u000A\u000A1123 Airport Blvd.\u000APensacola \u000AFL\u000A32504\u000A
p926
sg12
VFL
p927
sg14
V1876
p928
sg16
V30.481180
p929
sg18
V-87.221650
p930
sg20
S'Monday, 07. May 2012 09:45PM'
p931
sg22
L289L
ssL8486L
(dp932
g74
I3
sg101
V1918
p933
sg103
VKissimmee West
p934
sg76
S'Thursday, 10. May 2012 09:36PM'
p935
sg75
L8486L
sg106
VAvailable
p936
ssL8489L
(dp937
g74
I3
sg101
V1921
p938
sg103
VJacksonville East
p939
sg76
S'Thursday, 10. May 2012 09:36PM'
p940
sg75
L8489L
sg106
VAvailable
p941
ssL8057L
(dp942
g74
I3
sg101
V1273
p943
sg103
VPensacola NE
p944
sg76
S'Thursday, 10. May 2012 09:36PM'
p945
sg75
L8057L
sg106
VAvailable
p946
ssL1331L
(dp947
g3
VStaples
p948
sg5
I2
sg6
VLow Stock
p949
sg8
V33713
p950
sg10
V\u000A\u000A2004 34th Street North\u000ASt. Petersburg \u000AFL\u000A33713\u000A
p951
sg12
VFL
p952
sg14
V0202
p953
sg16
V27.791540
p954
sg18
V-82.680220
p955
sg20
S'Monday, 07. May 2012 09:45PM'
p956
sg22
L1331L
ssL8764L
(dp957
g74
I3
sg101
V2233
p958
sg103
VJacksonville West
p959
sg76
S'Thursday, 10. May 2012 09:36PM'
p960
sg75
L8764L
sg106
VAvailable
p961
ssL8502L
(dp962
g74
I3
sg101
V1934
p963
sg103
VViera
p964
sg76
S'Thursday, 10. May 2012 09:36PM'
p965
sg75
L8502L
sg106
VAvailable
p966
ssL8503L
(dp967
g74
I3
sg101
V1935
p968
sg103
VRoyal Palm Beach
p969
sg76
S'Thursday, 10. May 2012 09:36PM'
p970
sg75
L8503L
sg106
VAvailable
p971
ssL827L
(dp972
g3
VStaples
p973
sg5
I3
sg6
VIn Stock
p974
sg8
V33012
p975
sg10
V\u000A\u000A1700 West 49th Street\u000AHialeah \u000AFL\u000A33012\u000A
p976
sg12
VFL
p977
sg14
V1654
p978
sg16
V25.866350
p979
sg18
V-80.315960
p980
sg20
S'Monday, 07. May 2012 09:45PM'
p981
sg22
L827L
ssL7563L
(dp982
g74
Nsg75
L7563L
sg76
S'Thursday, 10. May 2012 09:36PM'
p983
ssL8509L
(dp984
g74
I3
sg101
V1941
p985
sg103
VLake Park/Palm Beach Gardens
p986
sg76
S'Thursday, 10. May 2012 09:36PM'
p987
sg75
L8509L
sg106
VAvailable
p988
ssL7529L
(dp989
g74
Nsg75
L7529L
sg76
S'Thursday, 10. May 2012 09:36PM'
p990
ssL320L
(dp991
g3
VStaples
p992
sg5
I2
sg6
VLow Stock
p993
sg8
V34293
p994
sg10
V\u000A\u000A4291 S. Tamiami Trail\u000AVenice \u000AFL\u000A34293\u000A
p995
sg12
VFL
p996
sg14
V0649
p997
sg16
V27.050360
p998
sg18
V-82.390010
p999
sg20
S'Monday, 07. May 2012 09:45PM'
p1000
sg22
L320L
ssL9025L
(dp1001
g74
I3
sg101
V2547
p1002
sg103
VWest Melbourne
p1003
sg76
S'Thursday, 10. May 2012 09:36PM'
p1004
sg75
L9025L
sg106
VAvailable
p1005
ssL834L
(dp1006
g3
VStaples
p1007
sg5
I-1
sg6
VOut of Stock
p1008
sg8
V34952
p1009
sg10
V\u000A\u000A10139 SE US Hwy 1\u000APort St. Lucie \u000AFL\u000A34952\u000A
p1010
sg12
VFL
p1011
sg14
V0624
p1012
sg16
V27.271600
p1013
sg18
V-80.290100
p1014
sg20
S'Monday, 07. May 2012 09:45PM'
p1015
sg22
L834L
ssL1347L
(dp1016
g3
VStaples
p1017
sg5
I0
sg6
VNot sold at this location
p1018
sg8
V32301
p1019
sg10
V\u000A\u000A2345 Apalachee Parkway\u000ATallahassee \u000AFL\u000A32301\u000A
p1020
sg12
VFL
p1021
sg14
V1060
p1022
sg16
V30.429300
p1023
sg18
V-84.242400
p1024
sg20
S'Monday, 07. May 2012 09:45PM'
p1025
sg22
L1347L
ssL838L
(dp1026
g3
VStaples
p1027
sg5
I0
sg6
VNot sold at this location
p1028
sg8
V34668
p1029
sg10
V\u000AThe Piers Shop Ctr\u000A6239 Tacoma Drive\u000APort Richey \u000AFL\u000A34668\u000A
p1030
sg12
VFL
p1031
sg14
V0211
p1032
sg16
V28.296240
p1033
sg18
V-82.709510
p1034
sg20
S'Monday, 07. May 2012 09:45PM'
p1035
sg22
L838L
ssL1355L
(dp1036
g3
VStaples
p1037
sg5
I0
sg6
VNot sold at this location
p1038
sg8
V32819
p1039
sg10
V\u000ASand Lake\u000A8421 S John Young Pkwy\u000AOrlando \u000AFL\u000A32819\u000A
p1040
sg12
VFL
p1041
sg14
V1004
p1042
sg16
V28.449400
p1043
sg18
V-81.424400
p1044
sg20
S'Monday, 07. May 2012 09:45PM'
p1045
sg22
L1355L
ssL333L
(dp1046
g3
VStaples
p1047
sg5
I-1
sg6
VOut of Stock
p1048
sg8
V34711
p1049
sg10
V\u000A\u000A1600 South Grand Highway\u000AClermont \u000AFL\u000A34711\u000A
p1050
sg12
VFL
p1051
sg14
V1622
p1052
sg16
V28.546510
p1053
sg18
V-81.741270
p1054
sg20
S'Monday, 07. May 2012 09:45PM'
p1055
sg22
L333L
ssL8077L
(dp1056
g74
I3
sg101
V1294
p1057
sg103
VSt Augustine
p1058
sg76
S'Thursday, 10. May 2012 09:36PM'
p1059
sg75
L8077L
sg106
VAvailable
p1060
ssL336L
(dp1061
g3
VStaples
p1062
sg5
I0
sg6
VNot sold at this location
p1063
sg8
V33144
p1064
sg10
V\u000A(67th and 8th)\u000A1044 SW 67th Ave\u000AMIAMI \u000AFL\u000A33144\u000A
p1065
sg12
VFL
p1066
sg14
V1735
p1067
sg16
V25.763440
p1068
sg18
V-80.305300
p1069
sg20
S'Monday, 07. May 2012 09:45PM'
p1070
sg22
L336L
ssL338L
(dp1071
g3
VStaples
p1072
sg5
I0
sg6
VNot sold at this location
p1073
sg8
V33176
p1074
sg10
V\u000AKendall Mall\u000A8811 SW 107th Avenue\u000AMiami \u000AFL\u000A33176\u000A
p1075
sg12
VFL
p1076
sg14
V1673
p1077
sg16
V25.687940
p1078
sg18
V-80.368630
p1079
sg20
S'Monday, 07. May 2012 09:45PM'
p1080
sg22
L338L
ssL8534L
(dp1081
g74
I3
sg101
V1966
p1082
sg103
VSanford
p1083
sg76
S'Thursday, 10. May 2012 09:36PM'
p1084
sg75
L8534L
sg106
VAvailable
p1085
ssL8535L
(dp1086
g74
I3
sg101
V1967
p1087
sg103
VSeven Springs
p1088
sg76
S'Thursday, 10. May 2012 09:36PM'
p1089
sg75
L8535L
sg106
VAvailable
p1090
ssL228L
(dp1091
g3
VStaples
p1092
sg5
I2
sg6
VLow Stock
p1093
sg8
V32159
p1094
sg10
V\u000A\u000A720 US Hwy. 441\u000ALady Lake (The Villages) \u000AFL\u000A32159\u000A
p1095
sg12
VFL
p1096
sg14
V1623
p1097
sg16
V28.934550
p1098
sg18
V-81.938970
p1099
sg20
S'Monday, 07. May 2012 09:45PM'
p1100
sg22
L228L
ssL349L
(dp1101
g3
VStaples
p1102
sg5
I3
sg6
VIn Stock
p1103
sg8
V34201
p1104
sg10
V\u000A\u000A5429 University Pkwy\u000AUniversity Park \u000AFL\u000A34201\u000A
p1105
sg12
VFL
p1106
sg14
V1220
p1107
sg16
V27.390720
p1108
sg18
V-82.460470
p1109
sg20
S'Monday, 07. May 2012 09:45PM'
p1110
sg22
L349L
ssL8542L
(dp1111
g74
I3
sg101
V1974
p1112
sg103
VJacksonville St Johns
p1113
sg76
S'Thursday, 10. May 2012 09:36PM'
p1114
sg75
L8542L
sg106
VAvailable
p1115
ssL352L
(dp1116
g3
VStaples
p1117
sg5
I3
sg6
VIn Stock
p1118
sg8
V34236
p1119
sg10
V\u000A\u000A1900 Fruitville Road\u000ASarasota \u000AFL\u000A34236\u000A
p1120
sg12
VFL
p1121
sg14
V1927
p1122
sg16
V27.338840
p1123
sg18
V-82.532280
p1124
sg20
S'Monday, 07. May 2012 09:45PM'
p1125
sg22
L352L
ssL7524L
(dp1126
g74
Nsg75
L7524L
sg76
S'Thursday, 10. May 2012 09:36PM'
p1127
ssL7527L
(dp1128
g74
Nsg75
L7527L
sg76
S'Thursday, 10. May 2012 09:36PM'
p1129
ssL1385L
(dp1130
g3
VStaples
p1131
sg5
I3
sg6
VIn Stock
p1132
sg8
V32935
p1133
sg10
V\u000ASuite #13\u000A1270-13 North Wickham Road\u000AMelbourne \u000AFL\u000A32935\u000A
p1134
sg12
VFL
p1135
sg14
V1055
p1136
sg16
V28.126550
p1137
sg18
V-80.674030
p1138
sg20
S'Monday, 07. May 2012 09:45PM'
p1139
sg22
L1385L
ssL7530L
(dp1140
g74
Nsg75
L7530L
sg76
S'Thursday, 10. May 2012 09:36PM'
p1141
ssL8423L
(dp1142
g74
I3
sg101
V1853
p1143
sg103
VOrtega
p1144
sg76
S'Thursday, 10. May 2012 09:36PM'
p1145
sg75
L8423L
sg106
VAvailable
p1146
ssL7532L
(dp1147
g74
Nsg75
L7532L
sg76
S'Thursday, 10. May 2012 09:36PM'
p1148
ssL7533L
(dp1149
g74
Nsg75
L7533L
sg76
S'Thursday, 10. May 2012 09:36PM'
p1150
ssL7534L
(dp1151
g74
Nsg75
L7534L
sg76
S'Thursday, 10. May 2012 09:36PM'
p1152
ssL7535L
(dp1153
g74
Nsg75
L7535L
sg76
S'Thursday, 10. May 2012 09:36PM'
p1154
ssL7536L
(dp1155
g74
Nsg75
L7536L
sg76
S'Thursday, 10. May 2012 09:36PM'
p1156
ssL8567L
(dp1157
g74
I3
sg101
V2022
p1158
sg103
VDavie
p1159
sg76
S'Thursday, 10. May 2012 09:36PM'
p1160
sg75
L8567L
sg106
VAvailable
p1161
ssL1401L
(dp1162
g3
VStaples
p1163
sg5
I0
sg6
VNot sold at this location
p1164
sg8
V32828
p1165
sg10
V\u000A\u000A638 N Alafaya Trail\u000AOrlando \u000AFL\u000A32828\u000A
p1166
sg12
VFL
p1167
sg14
V1781
p1168
sg16
V28.562960
p1169
sg18
V-81.210050
p1170
sg20
S'Monday, 07. May 2012 09:45PM'
p1171
sg22
L1401L
ssL7548L
(dp1172
g74
Nsg75
L7548L
sg76
S'Thursday, 10. May 2012 09:36PM'
p1173
ssL896L
(dp1174
g3
VStaples
p1175
sg5
I0
sg6
VNot sold at this location
p1176
sg8
V33322
p1177
sg10
V\u000A\u000A1937 N Pine Island Rd\u000APlantation \u000AFL\u000A33322\u000A
p1178
sg12
VFL
p1179
sg14
V1784
p1180
sg16
V26.146070
p1181
sg18
V-80.268120
p1182
sg20
S'Monday, 07. May 2012 09:45PM'
p1183
sg22
L896L
ssL1344L
(dp1184
g3
VStaples
p1185
sg5
I2
sg6
VLow Stock
p1186
sg8
V33778
p1187
sg10
V\u000ALargo Mall\u000A13013 Seminole Blvd\u000ALargo \u000AFL\u000A33778\u000A
p1188
sg12
VFL
p1189
sg14
V0229
p1190
sg16
V27.894490
p1191
sg18
V-82.787150
p1192
sg20
S'Monday, 07. May 2012 09:45PM'
p1193
sg22
L1344L
ssL8579L
(dp1194
g74
I3
sg101
V2034
p1195
sg103
VUniversity Parkway
p1196
sg76
S'Thursday, 10. May 2012 09:36PM'
p1197
sg75
L8579L
sg106
VAvailable
p1198
ssL900L
(dp1199
g3
VStaples
p1200
sg5
I2
sg6
VLow Stock
p1201
sg8
V33880
p1202
sg10
V\u000ACiti Centre\u000A700 3rd St SW 470 Citi Centre\u000AWinter Haven \u000AFL\u000A33880\u000A
p1203
sg12
VFL
p1204
sg14
V0344
p1205
sg16
V28.011970
p1206
sg18
V-81.730100
p1207
sg20
S'Monday, 07. May 2012 09:45PM'
p1208
sg22
L900L
ssL8584L
(dp1209
g74
I3
sg101
V2040
p1210
sg103
VTampa Central Walter's Crossing
p1211
sg76
S'Thursday, 10. May 2012 09:36PM'
p1212
sg75
L8584L
sg106
VAvailable
p1213
ssL8940L
(dp1214
g74
I3
sg101
V2427
p1215
sg103
VWest Palm Beach
p1216
sg76
S'Thursday, 10. May 2012 09:36PM'
p1217
sg75
L8940L
sg106
VAvailable
p1218
ssL395L
(dp1219
g3
VStaples
p1220
sg5
I3
sg6
VIn Stock
p1221
sg8
V34982
p1222
sg10
V\u000ASable Palm Plaza\u000A2609 South Federal Highway\u000AFort Pierce \u000AFL\u000A34982\u000A
p1223
sg12
VFL
p1224
sg14
V0441
p1225
sg16
V27.423900
p1226
sg18
V-80.326600
p1227
sg20
S'Monday, 07. May 2012 09:45PM'
p1228
sg22
L395L
ssL7564L
(dp1229
g74
Nsg75
L7564L
sg76
S'Thursday, 10. May 2012 09:36PM'
p1230
ssL7565L
(dp1231
g74
Nsg75
L7565L
sg76
S'Thursday, 10. May 2012 09:36PM'
p1232
ssL7566L
(dp1233
g74
Nsg75
L7566L
sg76
S'Thursday, 10. May 2012 09:36PM'
p1234
ssL7567L
(dp1235
g74
Nsg75
L7567L
sg76
S'Thursday, 10. May 2012 09:36PM'
p1236
ssL7568L
(dp1237
g74
Nsg75
L7568L
sg76
S'Thursday, 10. May 2012 09:36PM'
p1238
ssL8081L
(dp1239
g74
I3
sg101
V1299
p1240
sg103
VLakeland South
p1241
sg76
S'Thursday, 10. May 2012 09:36PM'
p1242
sg75
L8081L
sg106
VAvailable
p1243
ssL8082L
(dp1244
g74
I3
sg101
V1300
p1245
sg103
VJacksonville Mandarin
p1246
sg76
S'Thursday, 10. May 2012 09:36PM'
p1247
sg75
L8082L
sg106
VAvailable
p1248
ssL750L
(dp1249
g3
VStaples
p1250
sg5
I0
sg6
VNot sold at this location
p1251
sg8
V33483
p1252
sg10
V\u000AThe Plaza at Delray\u000A1626 S. Federal Highway\u000ADelray Beach \u000AFL\u000A33483\u000A
p1253
sg12
VFL
p1254
sg14
V1208
p1255
sg16
V26.440520
p1256
sg18
V-80.072420
p1257
sg20
S'Monday, 07. May 2012 09:45PM'
p1258
sg22
L750L
ssL8599L
(dp1259
g74
I3
sg101
V2058
p1260
sg103
VLady Lake
p1261
sg76
S'Thursday, 10. May 2012 09:36PM'
p1262
sg75
L8599L
sg106
VAvailable
p1263
ssL8600L
(dp1264
g74
I3
sg101
V2059
p1265
sg103
VLee County
p1266
sg76
S'Thursday, 10. May 2012 09:36PM'
p1267
sg75
L8600L
sg106
VAvailable
p1268
ssL8603L
(dp1269
g74
I3
sg101
V2062
p1270
sg103
VMt Dora
p1271
sg76
S'Thursday, 10. May 2012 09:36PM'
p1272
sg75
L8603L
sg106
VAvailable
p1273
ssL8604L
(dp1274
g74
I3
sg101
V2063
p1275
sg103
VNaples North
p1276
sg76
S'Thursday, 10. May 2012 09:36PM'
p1277
sg75
L8604L
sg106
VAvailable
p1278
ssL8605L
(dp1279
g74
I3
sg101
V2064
p1280
sg103
VPinellas Park
p1281
sg76
S'Thursday, 10. May 2012 09:36PM'
p1282
sg75
L8605L
sg106
VAvailable
p1283
ssL8606L
(dp1284
g74
I2
sg101
V2065
p1285
sg103
VWellington South
p1286
sg76
S'Thursday, 10. May 2012 09:36PM'
p1287
sg75
L8606L
sg106
VLimited Availability
p1288
ssL8608L
(dp1289
g74
I3
sg101
V2067
p1290
sg103
VBoynton Beach West
p1291
sg76
S'Thursday, 10. May 2012 09:36PM'
p1292
sg75
L8608L
sg106
VAvailable
p1293
ssL7585L
(dp1294
g74
Nsg75
L7585L
sg76
S'Thursday, 10. May 2012 09:36PM'
p1295
ssL930L
(dp1296
g3
VStaples
p1297
sg5
I0
sg6
VNot sold at this location
p1298
sg8
V33063
p1299
sg10
V\u000A\u000A5307 West Atlantic Boulevard\u000AMargate \u000AFL\u000A33063\u000A
p1300
sg12
VFL
p1301
sg14
V1655
p1302
sg16
V26.236030
p1303
sg18
V-80.197660
p1304
sg20
S'Monday, 07. May 2012 09:45PM'
p1305
sg22
L930L
ssL934L
(dp1306
g3
VStaples
p1307
sg5
I2
sg6
VLow Stock
p1308
sg8
V32960
p1309
sg10
V\u000A\u000A1191 US Highway 1\u000AVero Beach \u000AFL\u000A32960\u000A
p1310
sg12
VFL
p1311
sg14
V0625
p1312
sg16
V27.622450
p1313
sg18
V-80.389760
p1314
sg20
S'Monday, 07. May 2012 09:45PM'
p1315
sg22
L934L
ssL941L
(dp1316
g3
VStaples
p1317
sg5
I3
sg6
VIn Stock
p1318
sg8
V33625
p1319
sg10
V\u000A\u000A12845 Citrus Plaza Drive\u000ATampa \u000AFL\u000A33625\u000A
p1320
sg12
VFL
p1321
sg14
V1173
p1322
sg16
V28.064830
p1323
sg18
V-82.573550
p1324
sg20
S'Monday, 07. May 2012 09:45PM'
p1325
sg22
L941L
ssL8626L
(dp1326
g74
I3
sg101
V2085
p1327
sg103
VDestin
p1328
sg76
S'Thursday, 10. May 2012 09:36PM'
p1329
sg75
L8626L
sg106
VAvailable
p1330
ssL8116L
(dp1331
g74
I3
sg101
V1337
p1332
sg103
VDeerfield Beach
p1333
sg76
S'Thursday, 10. May 2012 09:36PM'
p1334
sg75
L8116L
sg106
VAvailable
p1335
ssL949L
(dp1336
g3
VStaples
p1337
sg5
I-1
sg6
VOut of Stock
p1338
sg8
V33813
p1339
sg10
V\u000A\u000A4313 South Florida Ave.\u000ALakeland \u000AFL\u000A33813\u000A
p1340
sg12
VFL
p1341
sg14
V1064
p1342
sg16
V27.987200
p1343
sg18
V-81.957000
p1344
sg20
S'Monday, 07. May 2012 09:45PM'
p1345
sg22
L949L
ssL950L
(dp1346
g3
VStaples
p1347
sg5
I2
sg6
VLow Stock
p1348
sg8
V32765
p1349
sg10
V\u000AOviedo Crossroads\u000A1950 W. State Road 426\u000AOviedo \u000AFL\u000A32765\u000A
p1350
sg12
VFL
p1351
sg14
V1031
p1352
sg16
V28.647350
p1353
sg18
V-81.231440
p1354
sg20
S'Monday, 07. May 2012 09:45PM'
p1355
sg22
L950L
ssL951L
(dp1356
g3
VStaples
p1357
sg5
I0
sg6
VNot sold at this location
p1358
sg8
V33324
p1359
sg10
V\u000APine Island Shopping Center\u000A8864 State Road 84\u000ADavie \u000AFL\u000A33324\u000A
p1360
sg12
VFL
p1361
sg14
V1744
p1362
sg16
V26.102240
p1363
sg18
V-80.267180
p1364
sg20
S'Monday, 07. May 2012 09:45PM'
p1365
sg22
L951L
ssL8633L
(dp1366
g74
I3
sg101
V2092
p1367
sg103
VDeerfield Beach W
p1368
sg76
S'Thursday, 10. May 2012 09:36PM'
p1369
sg75
L8633L
sg106
VAvailable
p1370
ssL449L
(dp1371
g3
VStaples
p1372
sg5
I0
sg6
VNot sold at this location
p1373
sg8
V33319
p1374
sg10
V\u000A\u000A7500 W. Commercial Blvd.\u000ALauderhill \u000AFL\u000A33319\u000A
p1375
sg12
VFL
p1376
sg14
V1674
p1377
sg16
V26.193272
p1378
sg18
V-80.251353
p1379
sg20
S'Monday, 07. May 2012 09:45PM'
p1380
sg22
L449L
ssL964L
(dp1381
g3
VStaples
p1382
sg5
I-1
sg6
VOut of Stock
p1383
sg8
V34994
p1384
sg10
V\u000A\u000A3150 SE Federal Highway\u000AStuart \u000AFL\u000A34994\u000A
p1385
sg12
VFL
p1386
sg14
V1184
p1387
sg16
V27.165800
p1388
sg18
V-80.228900
p1389
sg20
S'Monday, 07. May 2012 09:45PM'
p1390
sg22
L964L
ssL965L
(dp1391
g3
VStaples
p1392
sg5
I3
sg6
VIn Stock
p1393
sg8
V32536
p1394
sg10
V\u000A\u000A2821 Ferdon Blvd South\u000ACrestview \u000AFL\u000A32536\u000A
p1395
sg12
VFL
p1396
sg14
V1882
p1397
sg16
V30.731820
p1398
sg18
V-86.566150
p1399
sg20
S'Monday, 07. May 2012 09:45PM'
p1400
sg22
L965L
ssL8647L
(dp1401
g74
I3
sg101
V2109
p1402
sg103
VHialeah
p1403
sg76
S'Thursday, 10. May 2012 09:36PM'
p1404
sg75
L8647L
sg106
VAvailable
p1405
ssL7624L
(dp1406
g74
Nsg75
L7624L
sg76
S'Thursday, 10. May 2012 09:36PM'
p1407
ssL7625L
(dp1408
g74
Nsg75
L7625L
sg76
S'Thursday, 10. May 2012 09:36PM'
p1409
ssL971L
(dp1410
g3
VStaples
p1411
sg5
I3
sg6
VIn Stock
p1412
sg8
V33403
p1413
sg10
V\u000ALake Park Shopping Ctr.\u000A1260 Northlake Blvd.\u000ALake Park \u000AFL\u000A33403\u000A
p1414
sg12
VFL
p1415
sg14
V1199
p1416
sg16
V26.806900
p1417
sg18
V-80.081400
p1418
sg20
S'Monday, 07. May 2012 09:45PM'
p1419
sg22
L971L
ssL7586L
(dp1420
g74
Nsg75
L7586L
sg76
S'Thursday, 10. May 2012 09:36PM'
p1421
ssL8654L
(dp1422
g74
I3
sg101
V2118
p1423
sg103
VTampa North
p1424
sg76
S'Thursday, 10. May 2012 09:36PM'
p1425
sg75
L8654L
sg106
VAvailable
p1426
ssL465L
(dp1427
g3
VStaples
p1428
sg5
I2
sg6
VLow Stock
p1429
sg8
V33563
p1430
sg10
V\u000A\u000A1866 Jim Redman Pkwy\u000APlant City \u000AFL\u000A33563\u000A
p1431
sg12
VFL
p1432
sg14
V1069
p1433
sg16
V27.995040
p1434
sg18
V-82.120590
p1435
sg20
S'Monday, 07. May 2012 09:45PM'
p1436
sg22
L465L
ssL467L
(dp1437
g3
VStaples
p1438
sg5
I2
sg6
VLow Stock
p1439
sg8
V32803
p1440
sg10
V\u000A\u000A2774 East Colonial Drive\u000AOrlando \u000AFL\u000A32803\u000A
p1441
sg12
VFL
p1442
sg14
V1034
p1443
sg16
V28.551910
p1444
sg18
V-81.350120
p1445
sg20
S'Monday, 07. May 2012 09:45PM'
p1446
sg22
L467L
ssL468L
(dp1447
g3
VStaples
p1448
sg5
I2
sg6
VLow Stock
p1449
sg8
V34986
p1450
sg10
V\u000A\u000A1729 NW St. Lucie West Blvd\u000APort St. Lucie \u000AFL\u000A34986\u000A
p1451
sg12
VFL
p1452
sg14
V1716
p1453
sg16
V27.311720
p1454
sg18
V-80.406780
p1455
sg20
S'Monday, 07. May 2012 09:45PM'
p1456
sg22
L468L
ssL7637L
(dp1457
g74
Nsg75
L7637L
sg76
S'Thursday, 10. May 2012 09:36PM'
p1458
ssL7638L
(dp1459
g74
Nsg75
L7638L
sg76
S'Thursday, 10. May 2012 09:36PM'
p1460
ssL471L
(dp1461
g3
VStaples
p1462
sg5
I0
sg6
VNot sold at this location
p1463
sg8
V33909
p1464
sg10
V\u000A\u000A1800 Pine Island Road NE\u000ACape Coral \u000AFL\u000A33909\u000A
p1465
sg12
VFL
p1466
sg14
V1776
p1467
sg16
V26.668730
p1468
sg18
V-81.934460
p1469
sg20
S'Monday, 07. May 2012 09:45PM'
p1470
sg22
L471L
ssL7640L
(dp1471
g74
Nsg75
L7640L
sg76
S'Thursday, 10. May 2012 09:36PM'
p1472
ssL7844L
(dp1473
g74
I3
sg101
V1050
p1474
sg103
VVero Beach
p1475
sg76
S'Thursday, 10. May 2012 09:36PM'
p1476
sg75
L7844L
sg106
VAvailable
p1477
ssL7642L
(dp1478
g74
Nsg75
L7642L
sg76
S'Thursday, 10. May 2012 09:36PM'
p1479
ssL7643L
(dp1480
g74
Nsg75
L7643L
sg76
S'Thursday, 10. May 2012 09:36PM'
p1481
ssL8160L
(dp1482
g74
I3
sg101
V1382
p1483
sg103
VNew Tampa
p1484
sg76
S'Thursday, 10. May 2012 09:36PM'
p1485
sg75
L8160L
sg106
VAvailable
p1486
ssL993L
(dp1487
g3
VStaples
p1488
sg5
I3
sg6
VIn Stock
p1489
sg8
V33137
p1490
sg10
V\u000A\u000A2121 Biscayne Blvd\u000AMiami \u000AFL\u000A33137\u000A
p1491
sg12
VFL
p1492
sg14
V1831
p1493
sg16
V25.797520
p1494
sg18
V-80.188880
p1495
sg20
S'Monday, 07. May 2012 09:45PM'
p1496
sg22
L993L
ssL484L
(dp1497
g3
VStaples
p1498
sg5
I2
sg6
VLow Stock
p1499
sg8
V34231
p1500
sg10
V\u000ABeneva Plaza\u000A8199 Tamiami Trail South\u000ASarasota \u000AFL\u000A34231\u000A
p1501
sg12
VFL
p1502
sg14
V0206
p1503
sg16
V27.234500
p1504
sg18
V-82.498400
p1505
sg20
S'Monday, 07. May 2012 09:45PM'
p1506
sg22
L484L
ssL7654L
(dp1507
g74
Nsg75
L7654L
sg76
S'Thursday, 10. May 2012 09:36PM'
p1508
ssL8682L
(dp1509
g74
I0
sg101
V2146
p1510
sg103
VCoral Springs
p1511
sg76
S'Thursday, 10. May 2012 09:36PM'
p1512
sg75
L8682L
sg106
VOut Of Stock
p1513
ssL8690L
(dp1514
g74
I2
sg101
V2155
p1515
sg103
VYulee
p1516
sg76
S'Thursday, 10. May 2012 09:36PM'
p1517
sg75
L8690L
sg106
VLimited Availability
p1518
ssL7669L
(dp1519
g74
Nsg75
L7669L
sg76
S'Thursday, 10. May 2012 09:36PM'
p1520
ssL7670L
(dp1521
g74
Nsg75
L7670L
sg76
S'Thursday, 10. May 2012 09:36PM'
p1522
ssL1019L
(dp1523
g3
VStaples
p1524
sg5
I2
sg6
VLow Stock
p1525
sg8
V34689
p1526
sg10
V\u000A\u000A41334 North Hwy 19\u000ATarpon Springs \u000AFL\u000A34689\u000A
p1527
sg12
VFL
p1528
sg14
V0882
p1529
sg16
V28.147510
p1530
sg18
V-82.741400
p1531
sg20
S'Monday, 07. May 2012 09:45PM'
p1532
sg22
L1019L
ss.