(dp1
L1024L
(dp2
S'num'
p3
V0209
p4
sS'name'
p5
VStaples
p6
sS'zipcode'
p7
V33612
p8
sS'availbility'
p9
VLow Stock
p10
sS'store_name'
p11
V\u000A\u000A11806 Bruce B. Downs Blvd.\u000ATampa \u000AFL\u000A33612\u000A
p12
sS'state'
p13
VFL
p14
sS'availcode'
p15
I2
sS'lat'
p16
V28.053660
p17
sS'lng'
p18
V-82.426480
p19
sS'last_update'
p20
S'Monday, 07. May 2012 09:50PM'
p21
sS'id'
p22
L1024L
ssL1L
(dp23
g3
V1915
p24
sg5
VStaples
p25
sg7
V32250
p26
sg9
VIn Stock
p27
sg11
V\u000A\u000A4016 South Third Street\u000AJacksonville Beach \u000AFL\u000A32250\u000A
p28
sg13
VFL
p29
sg15
I3
sg16
V30.256190
p30
sg18
V-81.388800
p31
sg20
S'Monday, 07. May 2012 09:50PM'
p32
sg22
L1L
ssL1027L
(dp33
g3
V0214
p34
sg5
VStaples
p35
sg7
V32707
p36
sg9
VIn Stock
p37
sg11
V\u000ACasselberry Exchange\u000A5779 S. Hwy. 17-92\u000ACasselberry \u000AFL\u000A32707\u000A
p38
sg13
VFL
p39
sg15
I3
sg16
V28.661600
p40
sg18
V-81.341380
p41
sg20
S'Monday, 07. May 2012 09:50PM'
p42
sg22
L1027L
ssL5L
(dp43
g3
V0210
p44
sg5
VStaples
p45
sg7
V33511
p46
sg9
VIn Stock
p47
sg11
V\u000ARegency Square\u000A2424 W. Brandon Blvd.\u000ABrandon \u000AFL\u000A33511\u000A
p48
sg13
VFL
p49
sg15
I3
sg16
V27.938520
p50
sg18
V-82.322300
p51
sg20
S'Monday, 07. May 2012 09:50PM'
p52
sg22
L5L
ssL1035L
(dp53
g3
V1092
p54
sg5
VStaples
p55
sg7
V32114
p56
sg9
VLow Stock
p57
sg11
V\u000A\u000A2500 W. International Speedway Blvd.\u000ADaytona Beach \u000AFL\u000A32114\u000A
p58
sg13
VFL
p59
sg15
I2
sg16
V29.179630
p60
sg18
V-81.083020
p61
sg20
S'Monday, 07. May 2012 09:50PM'
p62
sg22
L1035L
ssL12L
(dp63
g3
V0203
p64
sg5
VStaples
p65
sg7
V33765
p66
sg9
VLow Stock
p67
sg11
V\u000ASunset Point Center\u000A23660 U.S. Hwy 19 N.\u000AClearwater \u000AFL\u000A33765\u000A
p68
sg13
VFL
p69
sg15
I2
sg16
V27.988150
p70
sg18
V-82.730660
p71
sg20
S'Monday, 07. May 2012 09:50PM'
p72
sg22
L12L
ssL7696L
(dp73
S'last_update'
p74
S'Thursday, 10. May 2012 09:57PM'
p75
sS'availcode'
p76
NsS'num'
p77
V0873
p78
sS'id'
p79
L7696L
sS'zipcode'
p80
V34471
p81
ssL7697L
(dp82
g74
S'Thursday, 10. May 2012 09:57PM'
p83
sg76
Nsg77
V0874
p84
sg79
L7697L
sg80
V32763
p85
ssL1044L
(dp86
g3
V1721
p87
sg5
VStaples
p88
sg7
V33186
p89
sg9
VIn Stock
p90
sg11
V\u000ACarter Square\u000A13640 North Kendall Drive\u000AMiami \u000AFL\u000A33186\u000A
p91
sg13
VFL
p92
sg15
I3
sg16
V25.684520
p93
sg18
V-80.415700
p94
sg20
S'Monday, 07. May 2012 09:50PM'
p95
sg22
L1044L
ssL24L
(dp96
g3
V0235
p97
sg5
VStaples
p98
sg7
V34470
p99
sg9
VIn Stock
p100
sg11
V\u000A\u000A1901 East Silversprings Blvd\u000AOcala \u000AFL\u000A34470\u000A
p101
sg13
VFL
p102
sg15
I3
sg16
V29.186500
p103
sg18
V-82.112000
p104
sg20
S'Monday, 07. May 2012 09:50PM'
p105
sg22
L24L
ssL8729L
(dp106
g77
V2196
p107
sS'name'
p108
VMiami Lakes
p109
sg80
V33055
p110
sS'availbility'
p111
VAvailable
p112
sg76
I3
sg74
S'Thursday, 10. May 2012 09:57PM'
p113
sg79
L8729L
ssL26L
(dp114
g3
V1738
p115
sg5
VStaples
p116
sg7
V33326
p117
sg9
VNot sold at this location
p118
sg11
V\u000A\u000A15860 W SR 84\u000ASunrise \u000AFL\u000A33326\u000A
p119
sg13
VFL
p120
sg15
I0
sg16
V26.123840
p121
sg18
V-80.360430
p122
sg20
S'Monday, 07. May 2012 09:50PM'
p123
sg22
L26L
ssL27L
(dp124
g3
V1625
p125
sg5
VStaples
p126
sg7
V33913
p127
sg9
VNot sold at this location
p128
sg11
V\u000A(Located at A1-75 and Alico Rd.)\u000A10016 Gulf Center Drive\u000AFort Myers \u000AFL\u000A33913\u000A
p129
sg13
VFL
p130
sg15
I0
sg16
V26.491630
p131
sg18
V-81.791377
p132
sg20
S'Monday, 07. May 2012 09:50PM'
p133
sg22
L27L
ssL31L
(dp134
g3
V1063
p135
sg5
VStaples
p136
sg7
V32034
p137
sg9
VLow Stock
p138
sg11
V\u000A\u000A1836 South 8th Street\u000AFernandina Beach \u000AFL\u000A32034\u000A
p139
sg13
VFL
p140
sg15
I2
sg16
V30.642590
p141
sg18
V-81.458600
p142
sg20
S'Monday, 07. May 2012 09:50PM'
p143
sg22
L31L
ssL546L
(dp144
g3
V1668
p145
sg5
VStaples
p146
sg7
V33145
p147
sg9
VLow Stock
p148
sg11
V\u000A\u000A2120 SW 32nd Avenue\u000ACoral Gables \u000AFL\u000A33145\u000A
p149
sg13
VFL
p150
sg15
I2
sg16
V25.750520
p151
sg18
V-80.246060
p152
sg20
S'Monday, 07. May 2012 09:50PM'
p153
sg22
L546L
ssL8740L
(dp154
g77
V2208
p155
sg108
VPier Park
p156
sg80
V32413
p157
sg111
VAvailable
p158
sg76
I3
sg74
S'Thursday, 10. May 2012 09:57PM'
p159
sg79
L8740L
ssL8741L
(dp160
g77
V2209
p161
sg108
VSuncoast Pasco County
p162
sg80
V33556
p163
sg111
VAvailable
p164
sg76
I3
sg74
S'Thursday, 10. May 2012 09:57PM'
p165
sg79
L8741L
ssL8742L
(dp166
g77
V2210
p167
sg108
VBoynton Beach SE
p168
sg80
V33426
p169
sg111
VAvailable
p170
sg76
I3
sg74
S'Thursday, 10. May 2012 09:57PM'
p171
sg79
L8742L
ssL7719L
(dp172
g74
S'Thursday, 10. May 2012 09:57PM'
p173
sg76
Nsg77
V0897
p174
sg79
L7719L
sg80
V32765
p175
ssL7720L
(dp176
g74
S'Thursday, 10. May 2012 09:57PM'
p177
sg76
Nsg77
V0898
p178
sg79
L7720L
sg80
V32707
p179
ssL7721L
(dp180
g74
S'Thursday, 10. May 2012 09:57PM'
p181
sg76
Nsg77
V0899
p182
sg79
L7721L
sg80
V34109
p183
ssL8541L
(dp184
g77
V1973
p185
sg108
VTallahassee North
p186
sg80
V32309
p187
sg111
VAvailable
p188
sg76
I3
sg74
S'Thursday, 10. May 2012 09:57PM'
p189
sg79
L8541L
ssL560L
(dp190
g3
V1740
p191
sg5
VStaples
p192
sg7
V34787
p193
sg9
VIn Stock
p194
sg11
V\u000A\u000A3065 Daniels Road\u000AWinter Garden \u000AFL\u000A34787\u000A
p195
sg13
VFL
p196
sg15
I3
sg16
V28.522030
p197
sg18
V-81.589540
p198
sg20
S'Monday, 07. May 2012 09:50PM'
p199
sg22
L560L
ssL1073L
(dp200
g3
V1058
p201
sg5
VStaples
p202
sg7
V34606
p203
sg9
VLow Stock
p204
sg11
V\u000A\u000A4210 Commercial Way\u000ASpring Hill \u000AFL\u000A34606\u000A
p205
sg13
VFL
p206
sg15
I2
sg16
V28.493650
p207
sg18
V-82.597060
p208
sg20
S'Monday, 07. May 2012 09:50PM'
p209
sg22
L1073L
ssL562L
(dp210
g3
V1068
p211
sg5
VStaples
p212
sg7
V32137
p213
sg9
VIn Stock
p214
sg11
V\u000A\u000A9 Old Kings Road\u000APalm Coast \u000AFL\u000A32137\u000A
p215
sg13
VFL
p216
sg15
I3
sg16
V29.557200
p217
sg18
V-81.218100
p218
sg20
S'Monday, 07. May 2012 09:50PM'
p219
sg22
L562L
ssL51L
(dp220
g3
V1194
p221
sg5
VStaples
p222
sg7
V33426
p223
sg9
VNot sold at this location
p224
sg11
V\u000A\u000A1540 S. W. 8th Street\u000ABoynton Beach \u000AFL\u000A33426\u000A
p225
sg13
VFL
p226
sg15
I0
sg16
V26.515640
p227
sg18
V-80.076530
p228
sg20
S'Monday, 07. May 2012 09:50PM'
p229
sg22
L51L
ssL8286L
(dp230
g77
V1512
p231
sg108
VMiramar
p232
sg80
V33027
p233
sg111
VAvailable
p234
sg76
I3
sg74
S'Thursday, 10. May 2012 09:57PM'
p235
sg79
L8286L
ssL1078L
(dp236
g3
V1029
p237
sg5
VStaples
p238
sg7
V32818
p239
sg9
VIn Stock
p240
sg11
V\u000A\u000A867 Good Homes Rd\u000AOrlando \u000AFL\u000A32818\u000A
p241
sg13
VFL
p242
sg15
I3
sg16
V28.552300
p243
sg18
V-81.504510
p244
sg20
S'Monday, 07. May 2012 09:50PM'
p245
sg22
L1078L
ssL1081L
(dp246
g3
V1849
p247
sg5
VStaples
p248
sg7
V33139
p249
sg9
VIn Stock
p250
sg11
V\u000A\u000A1139 5th Street\u000AMiami Beach \u000AFL\u000A33139\u000A
p251
sg13
VFL
p252
sg15
I3
sg16
V25.774600
p253
sg18
V-80.139740
p254
sg20
S'Monday, 07. May 2012 09:50PM'
p255
sg22
L1081L
ssL7738L
(dp256
g74
S'Thursday, 10. May 2012 09:57PM'
p257
sg76
Nsg77
V0919
p258
sg79
L7738L
sg80
V34606
p259
ssL7739L
(dp260
g74
S'Thursday, 10. May 2012 09:57PM'
p261
sg76
Nsg77
V0920
p262
sg79
L7739L
sg80
V33026
p263
ssL60L
(dp264
g3
V1892
p265
sg5
VStaples
p266
sg7
V33033
p267
sg9
VLow Stock
p268
sg11
V\u000A\u000A2631 NE 10th Ct\u000AHomestead \u000AFL\u000A33033\u000A
p269
sg13
VFL
p270
sg15
I2
sg16
V25.478210
p271
sg18
V-80.441000
p272
sg20
S'Monday, 07. May 2012 09:50PM'
p273
sg22
L60L
ssL8766L
(dp274
g77
V2235
p275
sg108
VBrandon South
p276
sg80
V33578
p277
sg111
VAvailable
p278
sg76
I3
sg74
S'Thursday, 10. May 2012 09:57PM'
p279
sg79
L8766L
ssL8255L
(dp280
g77
V1480
p281
sg108
VPlantation
p282
sg80
V33324
p283
sg111
VAvailable
p284
sg76
I3
sg74
S'Thursday, 10. May 2012 09:57PM'
p285
sg79
L8255L
ssL69L
(dp286
g3
V1056
p287
sg5
VStaples
p288
sg7
V32177
p289
sg9
VLow Stock
p290
sg11
V\u000A\u000A327 Highway 19 North\u000APalatka \u000AFL\u000A32177\u000A
p291
sg13
VFL
p292
sg15
I2
sg16
V29.651510
p293
sg18
V-81.672410
p294
sg20
S'Monday, 07. May 2012 09:50PM'
p295
sg22
L69L
ssL582L
(dp296
g3
V1053
p297
sg5
VStaples
p298
sg7
V32207
p299
sg9
VLow Stock
p300
sg11
V\u000A\u000A5800 Beach Blvd.\u000AJacksonville \u000AFL\u000A32207\u000A
p301
sg13
VFL
p302
sg15
I2
sg16
V30.293000
p303
sg18
V-81.604400
p304
sg20
S'Monday, 07. May 2012 09:50PM'
p305
sg22
L582L
ssL8778L
(dp306
g77
V2248
p307
sg108
VPort St Lucie
p308
sg80
V34987
p309
sg111
VLimited Availability
p310
sg76
I2
sg74
S'Thursday, 10. May 2012 09:57PM'
p311
sg79
L8778L
ssL8271L
(dp312
g77
V1497
p313
sg108
VFleming Island
p314
sg80
V32003
p315
sg111
VAvailable
p316
sg76
I3
sg74
S'Thursday, 10. May 2012 09:57PM'
p317
sg79
L8271L
ssL595L
(dp318
g3
V1899
p319
sg5
VStaples
p320
sg7
V33542
p321
sg9
VLow Stock
p322
sg11
V\u000A\u000A7910 Gall Blvd\u000AZephyrhills \u000AFL\u000A33542\u000A
p323
sg13
VFL
p324
sg15
I2
sg16
V28.272850
p325
sg18
V-82.187500
p326
sg20
S'Monday, 07. May 2012 09:50PM'
p327
sg22
L595L
ssL8277L
(dp328
g77
V1503
p329
sg108
VOrange Park
p330
sg80
V32073
p331
sg111
VAvailable
p332
sg76
I3
sg74
S'Thursday, 10. May 2012 09:57PM'
p333
sg79
L8277L
ssL598L
(dp334
g3
V1875
p335
sg5
VStaples
p336
sg7
V33025
p337
sg9
VNot sold at this location
p338
sg11
V\u000AWest Miramar at Flamingo Road\u000A12216 Miramar Parkway\u000AMiramar \u000AFL\u000A33025\u000A
p339
sg13
VFL
p340
sg15
I0
sg16
V25.978370
p341
sg18
V-80.309760
p342
sg20
S'Monday, 07. May 2012 09:50PM'
p343
sg22
L598L
ssL8793L
(dp344
g77
V2264
p345
sg108
VWinter Garden
p346
sg80
V34787
p347
sg111
VAvailable
p348
sg76
I3
sg74
S'Thursday, 10. May 2012 09:57PM'
p349
sg79
L8793L
ssL8794L
(dp350
g77
V2265
p351
sg108
VCoral Springs NW
p352
sg80
V33076
p353
sg111
VOut Of Stock
p354
sg76
I0
sg74
S'Thursday, 10. May 2012 09:57PM'
p355
sg79
L8794L
ssL93L
(dp356
g3
V1544
p357
sg5
VStaples
p358
sg7
V33761
p359
sg9
VNot sold at this location
p360
sg11
V\u000A\u000A30190 US Highway 19N\u000AClearwater \u000AFL\u000A33761\u000A
p361
sg13
VFL
p362
sg15
I0
sg16
V28.048100
p363
sg18
V-82.739270
p364
sg20
S'Monday, 07. May 2012 09:50PM'
p365
sg22
L93L
ssL8798L
(dp366
g77
V2269
p367
sg108
VTitusville
p368
sg80
V32780
p369
sg111
VAvailable
p370
sg76
I3
sg74
S'Thursday, 10. May 2012 09:57PM'
p371
sg79
L8798L
ssL7777L
(dp372
g74
S'Thursday, 10. May 2012 09:57PM'
p373
sg76
Nsg77
V0967
p374
sg79
L7777L
sg80
V32250
p375
ssL7778L
(dp376
g74
S'Thursday, 10. May 2012 09:57PM'
p377
sg76
Nsg77
V0968
p378
sg79
L7778L
sg80
V33155
p379
ssL7867L
(dp380
g77
V1074
p381
sg108
VAventura
p382
sg80
V33180
p383
sg111
VAvailable
p384
sg76
I3
sg74
S'Thursday, 10. May 2012 09:57PM'
p385
sg79
L7867L
ssL8292L
(dp386
g77
V1518
p387
sg108
VOrlando Millenia
p388
sg80
V32839
p389
sg111
VAvailable
p390
sg76
I3
sg74
S'Thursday, 10. May 2012 09:57PM'
p391
sg79
L8292L
ssL8293L
(dp392
g77
V1519
p393
sg108
VClermont
p394
sg80
V34711
p395
sg111
VAvailable
p396
sg76
I3
sg74
S'Thursday, 10. May 2012 09:57PM'
p397
sg79
L8293L
ssL8721L
(dp398
g77
V2188
p399
sg108
VMiami Central
p400
sg80
V33127
p401
sg111
VAvailable
p402
sg76
I3
sg74
S'Thursday, 10. May 2012 09:57PM'
p403
sg79
L8721L
ssL616L
(dp404
g3
V1246
p405
sg5
VStaples
p406
sg7
V34209
p407
sg9
VNot sold at this location
p408
sg11
V\u000A\u000A7210 Manatee Ave.\u000ABradenton \u000AFL\u000A34209\u000A
p409
sg13
VFL
p410
sg15
I0
sg16
V27.496590
p411
sg18
V-82.635160
p412
sg20
S'Monday, 07. May 2012 09:50PM'
p413
sg22
L616L
ssL1132L
(dp414
g3
V1726
p415
sg5
VStaples
p416
sg7
V33064
p417
sg9
VNot sold at this location
p418
sg11
V\u000A\u000A3742 North Federal Highway\u000ALighthouse Point \u000AFL\u000A33064\u000A
p419
sg13
VFL
p420
sg15
I0
sg16
V26.277530
p421
sg18
V-80.097570
p422
sg20
S'Monday, 07. May 2012 09:50PM'
p423
sg22
L1132L
ssL8815L
(dp424
g77
V2289
p425
sg108
VTampa West
p426
sg80
V33635
p427
sg111
VAvailable
p428
sg76
I3
sg74
S'Thursday, 10. May 2012 09:57PM'
p429
sg79
L8815L
ssL8808L
(dp430
g77
V2279
p431
sg108
VPace
p432
sg80
V32571
p433
sg111
VAvailable
p434
sg76
I3
sg74
S'Thursday, 10. May 2012 09:57PM'
p435
sg79
L8808L
ssL631L
(dp436
g3
V1616
p437
sg5
VStaples
p438
sg7
V32246
p439
sg9
VNot sold at this location
p440
sg11
V\u000A\u000A10261 River Marsh Drive\u000AJacksonville \u000AFL\u000A32246\u000A
p441
sg13
VFL
p442
sg15
I0
sg16
V30.253950
p443
sg18
V-81.523050
p444
sg20
S'Monday, 07. May 2012 09:50PM'
p445
sg22
L631L
ssL632L
(dp446
g3
V1081
p447
sg5
VStaples
p448
sg7
V32780
p449
sg9
VOut of Stock
p450
sg11
V\u000A\u000A3155 Columbia Blvd.\u000ATitusville \u000AFL\u000A32780\u000A
p451
sg13
VFL
p452
sg15
I-1
sg16
V28.553000
p453
sg18
V-80.845800
p454
sg20
S'Monday, 07. May 2012 09:50PM'
p455
sg22
L632L
ssL7700L
(dp456
g74
S'Thursday, 10. May 2012 09:57PM'
p457
sg76
Nsg77
V0877
p458
sg79
L7700L
sg80
V33021
p459
ssL635L
(dp460
g3
V1656
p461
sg5
VStaples
p462
sg7
V33165
p463
sg9
VNot sold at this location
p464
sg11
V\u000A\u000A8859 S.W. 24th St.\u000AMiami \u000AFL\u000A33165\u000A
p465
sg13
VFL
p466
sg15
I0
sg16
V25.747510
p467
sg18
V-80.339050
p468
sg20
S'Monday, 07. May 2012 09:50PM'
p469
sg22
L635L
ssL636L
(dp470
g3
V1207
p471
sg5
VStaples
p472
sg7
V34109
p473
sg9
VNot sold at this location
p474
sg11
V\u000A\u000A6305 Naples Blvd.\u000ANaples \u000AFL\u000A34109\u000A
p475
sg13
VFL
p476
sg15
I0
sg16
V26.219610
p477
sg18
V-81.772590
p478
sg20
S'Monday, 07. May 2012 09:50PM'
p479
sg22
L636L
ssL7531L
(dp480
g74
S'Thursday, 10. May 2012 09:57PM'
p481
sg76
Nsg77
V0649
p482
sg79
L7531L
sg80
V32803
p483
ssL133L
(dp484
g3
V1624
p485
sg5
VStaples
p486
sg7
V34110
p487
sg9
VNot sold at this location
p488
sg11
V\u000A\u000A13585 N Tamiami Trail Ste 12\u000ANaples \u000AFL\u000A34110\u000A
p489
sg13
VFL
p490
sg15
I0
sg16
V26.294880
p491
sg18
V-81.804710
p492
sg20
S'Monday, 07. May 2012 09:50PM'
p493
sg22
L133L
ssL8838L
(dp494
g77
V2316
p495
sg108
VCape Coral North
p496
sg80
V33909
p497
sg111
VAvailable
p498
sg76
I3
sg74
S'Thursday, 10. May 2012 09:57PM'
p499
sg79
L8838L
ssL8839L
(dp500
g77
V2317
p501
sg108
VCoconut Point
p502
sg80
V33928
p503
sg111
VAvailable
p504
sg76
I3
sg74
S'Thursday, 10. May 2012 09:57PM'
p505
sg79
L8839L
ssL7817L
(dp506
g77
V1023
p507
sg108
VPark &amp; Tyrone
p508
sg80
V33709
p509
sg111
VAvailable
p510
sg76
I3
sg74
S'Thursday, 10. May 2012 09:57PM'
p511
sg79
L7817L
ssL8332L
(dp512
g77
V1760
p513
sg108
VWaterford Lakes
p514
sg80
V32828
p515
sg111
VAvailable
p516
sg76
I3
sg74
S'Thursday, 10. May 2012 09:57PM'
p517
sg79
L8332L
ssL142L
(dp518
g3
V1680
p519
sg5
VStaples
p520
sg7
V33647
p521
sg9
VLow Stock
p522
sg11
V\u000A\u000A6260 Commerce Palms\u000ANew Tampa \u000AFL\u000A33647\u000A
p523
sg13
VFL
p524
sg15
I2
sg16
V28.119890
p525
sg18
V-82.375120
p526
sg20
S'Monday, 07. May 2012 09:50PM'
p527
sg22
L142L
ssL655L
(dp528
g3
V1209
p529
sg5
VStaples
p530
sg7
V33907
p531
sg9
VLow Stock
p532
sg11
V\u000ACypress Lake Shopping Center\u000A7191-3 Cypress Lake Drive\u000AFt. Myers \u000AFL\u000A33907\u000A
p533
sg13
VFL
p534
sg15
I2
sg16
V26.544070
p535
sg18
V-81.873700
p536
sg20
S'Monday, 07. May 2012 09:50PM'
p537
sg22
L655L
ssL144L
(dp538
g3
V1728
p539
sg5
VStaples
p540
sg7
V33073
p541
sg9
VNot sold at this location
p542
sg11
V\u000A\u000A4301 W. Hillsboro Boulevard\u000ACoconut Creek \u000AFL\u000A33073\u000A
p543
sg13
VFL
p544
sg15
I0
sg16
V26.317660
p545
sg18
V-80.183860
p546
sg20
S'Monday, 07. May 2012 09:50PM'
p547
sg22
L144L
ssL147L
(dp548
g3
V1071
p549
sg5
VStaples
p550
sg7
V32086
p551
sg9
VLow Stock
p552
sg11
V\u000A\u000A1940 US Highway 1 South\u000ASt. Augustine \u000AFL\u000A32086\u000A
p553
sg13
VFL
p554
sg15
I2
sg16
V29.865800
p555
sg18
V-81.323400
p556
sg20
S'Monday, 07. May 2012 09:50PM'
p557
sg22
L147L
ssL150L
(dp558
g3
V1884
p559
sg5
VStaples
p560
sg7
V32223
p561
sg9
VNot sold at this location
p562
sg11
V\u000A\u000A11111 San Jose Blvd.  Suite 56\u000AJacksonville \u000AFL\u000A32223\u000A
p563
sg13
VFL
p564
sg15
I0
sg16
V30.173420
p565
sg18
V-81.627900
p566
sg20
S'Monday, 07. May 2012 09:50PM'
p567
sg22
L150L
ssL7832L
(dp568
g77
V1038
p569
sg108
VNorth Miami
p570
sg80
V33181
p571
sg111
VAvailable
p572
sg76
I3
sg74
S'Thursday, 10. May 2012 09:57PM'
p573
sg79
L7832L
ssL665L
(dp574
g3
V1778
p575
sg5
VStaples
p576
sg7
V33157
p577
sg9
VNot sold at this location
p578
sg11
V\u000A\u000A18591 South Dixie Highway\u000ACutler Bay \u000AFL\u000A33157\u000A
p579
sg13
VFL
p580
sg15
I0
sg16
V25.596590
p581
sg18
V-80.354750
p582
sg20
S'Monday, 07. May 2012 09:50PM'
p583
sg22
L665L
ssL154L
(dp584
g3
V1775
p585
sg5
VStaples
p586
sg7
V34113
p587
sg9
VNot sold at this location
p588
sg11
V\u000A\u000A12632 East Tamiami Trail\u000ANaples \u000AFL\u000A34113\u000A
p589
sg13
VFL
p590
sg15
I0
sg16
V26.063210
p591
sg18
V-81.700110
p592
sg20
S'Monday, 07. May 2012 09:50PM'
p593
sg22
L154L
ssL667L
(dp594
g3
V1032
p595
sg5
VStaples
p596
sg7
V34741
p597
sg9
VLow Stock
p598
sg11
V\u000A\u000A101 West Vine St.\u000AKissimmee \u000AFL\u000A34741\u000A
p599
sg13
VFL
p600
sg15
I2
sg16
V28.305000
p601
sg18
V-81.404710
p602
sg20
S'Monday, 07. May 2012 09:50PM'
p603
sg22
L667L
ssL8350L
(dp604
g77
V1778
p605
sg108
VLauderhill
p606
sg80
V33351
p607
sg111
VAvailable
p608
sg76
I3
sg74
S'Thursday, 10. May 2012 09:57PM'
p609
sg79
L8350L
ssL164L
(dp610
g3
V1057
p611
sg5
VStaples
p612
sg7
V32905
p613
sg9
VIn Stock
p614
sg11
V\u000A\u000A1595 Palm Bay Rd.\u000APalm Bay \u000AFL\u000A32905\u000A
p615
sg13
VFL
p616
sg15
I3
sg16
V28.035420
p617
sg18
V-80.622290
p618
sg20
S'Monday, 07. May 2012 09:50PM'
p619
sg22
L164L
ssL7845L
(dp620
g77
V1051
p621
sg108
VGandy
p622
sg80
V33611
p623
sg111
VAvailable
p624
sg76
I3
sg74
S'Thursday, 10. May 2012 09:57PM'
p625
sg79
L7845L
ssL7847L
(dp626
g77
V1053
p627
sg108
VMerritt Island
p628
sg80
V32953
p629
sg111
VAvailable
p630
sg76
I3
sg74
S'Thursday, 10. May 2012 09:57PM'
p631
sg79
L7847L
ssL8361L
(dp632
g77
V1790
p633
sg108
VHunters Creek
p634
sg80
V32837
p635
sg111
VAvailable
p636
sg76
I3
sg74
S'Thursday, 10. May 2012 09:57PM'
p637
sg79
L8361L
ssL172L
(dp638
g3
V1862
p639
sg5
VStaples
p640
sg7
V33411
p641
sg9
VNot sold at this location
p642
sg11
V\u000A(Wellington)\u000A10465 Southern Blvd\u000ARoyal Palm Beach \u000AFL\u000A33411\u000A
p643
sg13
VFL
p644
sg15
I0
sg16
V26.681230
p645
sg18
V-80.208570
p646
sg20
S'Monday, 07. May 2012 09:50PM'
p647
sg22
L172L
ssL8366L
(dp648
g77
V1795
p649
sg108
VPort Orange
p650
sg80
V32127
p651
sg111
VLimited Availability
p652
sg76
I2
sg74
S'Thursday, 10. May 2012 09:57PM'
p653
sg79
L8366L
ssL8882L
(dp654
g77
V2363
p655
sg108
VFort Myers SW
p656
sg80
V33908
p657
sg111
VAvailable
p658
sg76
I3
sg74
S'Thursday, 10. May 2012 09:57PM'
p659
sg79
L8882L
ssL8883L
(dp660
g77
V2364
p661
sg108
VPalm Coast
p662
sg80
V32164
p663
sg111
VOut Of Stock
p664
sg76
I0
sg74
S'Thursday, 10. May 2012 09:57PM'
p665
sg79
L8883L
ssL8885L
(dp666
g77
V2366
p667
sg108
VNE Polk County
p668
sg80
V33837
p669
sg111
VAvailable
p670
sg76
I3
sg74
S'Thursday, 10. May 2012 09:57PM'
p671
sg79
L8885L
ssL1207L
(dp672
g3
V0205
p673
sg5
VStaples
p674
sg7
V33809
p675
sg9
VLow Stock
p676
sg11
V\u000AShoppes at Lakeland\u000A4011 US Highway 98 North\u000ALakeland \u000AFL\u000A33809\u000A
p677
sg13
VFL
p678
sg15
I2
sg16
V28.093524
p679
sg18
V-81.973717
p680
sg20
S'Monday, 07. May 2012 09:50PM'
p681
sg22
L1207L
ssL8888L
(dp682
g77
V2369
p683
sg108
VFort Myers North
p684
sg80
V33905
p685
sg111
VAvailable
p686
sg76
I3
sg74
S'Thursday, 10. May 2012 09:57PM'
p687
sg79
L8888L
ssL8889L
(dp688
g77
V2370
p689
sg108
VOrlando SW
p690
sg80
V34747
p691
sg111
VAvailable
p692
sg76
I3
sg74
S'Thursday, 10. May 2012 09:57PM'
p693
sg79
L8889L
ssL8890L
(dp694
S'num'
p695
V2371
p696
sS'name'
p697
VAnchorage NE
p698
sS'availbility'
p699
VAvailable
p700
sS'last_update'
p701
S'Thursday, 10. May 2012 03:04PM'
p702
sS'availcode'
p703
I3
sS'id'
p704
L8890L
ssL8891L
(dp705
g695
V2372
p706
sg697
VAnchorage South
p707
sg699
VNot Available
p708
sg701
S'Thursday, 10. May 2012 03:04PM'
p709
sg703
I0
sg704
L8891L
ssL7868L
(dp710
g77
V1075
p711
sg108
VCutler Ridge
p712
sg80
V33189
p713
sg111
VAvailable
p714
sg76
I3
sg74
S'Thursday, 10. May 2012 09:57PM'
p715
sg79
L7868L
ssL8895L
(dp716
g77
V2376
p717
sg108
VOrlando - Sodo
p718
sg80
V32806
p719
sg111
VAvailable
p720
sg76
I3
sg74
S'Thursday, 10. May 2012 09:57PM'
p721
sg79
L8895L
ssL8390L
(dp722
g77
V1820
p723
sg108
VClearwater
p724
sg80
V33759
p725
sg111
VAvailable
p726
sg76
I3
sg74
S'Thursday, 10. May 2012 09:57PM'
p727
sg79
L8390L
ssL289L
(dp728
g3
V1876
p729
sg5
VStaples
p730
sg7
V32504
p731
sg9
VIn Stock
p732
sg11
V\u000A\u000A1123 Airport Blvd.\u000APensacola \u000AFL\u000A32504\u000A
p733
sg13
VFL
p734
sg15
I3
sg16
V30.481180
p735
sg18
V-87.221650
p736
sg20
S'Monday, 07. May 2012 09:50PM'
p737
sg22
L289L
ssL210L
(dp738
g3
V0212
p739
sg5
VStaples
p740
sg7
V33764
p741
sg9
VNot sold at this location
p742
sg11
V\u000A\u000A10900 U.S. Hwy 19N\u000AClearwater \u000AFL\u000A33764\u000A
p743
sg13
VFL
p744
sg15
I0
sg16
V27.871500
p745
sg18
V-82.707200
p746
sg20
S'Monday, 07. May 2012 09:50PM'
p747
sg22
L210L
ssL7545L
(dp748
g74
S'Thursday, 10. May 2012 09:57PM'
p749
sg76
Nsg77
V0665
p750
sg79
L7545L
sg80
V34238
p751
ssL728L
(dp752
g3
V1901
p753
sg5
VStaples
p754
sg7
V32822
p755
sg9
VNot sold at this location
p756
sg11
V\u000AVista Palms\u000A7157 Narcoossee Road\u000AOrlando \u000AFL\u000A32822\u000A
p757
sg13
VFL
p758
sg15
I0
sg16
V28.464870
p759
sg18
V-81.273630
p760
sg20
S'Monday, 07. May 2012 09:50PM'
p761
sg22
L728L
ssL217L
(dp762
g3
V0201
p763
sg5
VStaples
p764
sg7
V33607
p765
sg9
VIn Stock
p766
sg11
V\u000AHorizon Park Plaza\u000A3702 West  Spruce St.\u000ATampa \u000AFL\u000A33607\u000A
p767
sg13
VFL
p768
sg15
I3
sg16
V27.958680
p769
sg18
V-82.507450
p770
sg20
S'Monday, 07. May 2012 09:50PM'
p771
sg22
L217L
ssL1243L
(dp772
g3
V1747
p773
sg5
VStaples
p774
sg7
V34119
p775
sg9
VNot sold at this location
p776
sg11
V\u000A\u000A2415 Tarpon Bay Blvd No. 4\u000ANaples \u000AFL\u000A34119\u000A
p777
sg13
VFL
p778
sg15
I0
sg16
V26.272130
p779
sg18
V-81.738420
p780
sg20
S'Monday, 07. May 2012 09:50PM'
p781
sg22
L1243L
ssL1244L
(dp782
g3
V1066
p783
sg5
VStaples
p784
sg7
V32065
p785
sg9
VNot sold at this location
p786
sg11
V\u000A\u000A700-16 South Blanding Blvd.\u000AOrange Park \u000AFL\u000A32065\u000A
p787
sg13
VFL
p788
sg15
I0
sg16
V30.146800
p789
sg18
V-81.759600
p790
sg20
S'Monday, 07. May 2012 09:50PM'
p791
sg22
L1244L
ssL7901L
(dp792
g77
V1110
p793
sg108
VGreenacres
p794
sg80
V33463
p795
sg111
VAvailable
p796
sg76
I3
sg74
S'Thursday, 10. May 2012 09:57PM'
p797
sg79
L7901L
ssL8229L
(dp798
g77
V1454
p799
sg108
VCape Coral
p800
sg80
V33914
p801
sg111
VAvailable
p802
sg76
I3
sg74
S'Thursday, 10. May 2012 09:57PM'
p803
sg79
L8229L
ssL736L
(dp804
g3
V1206
p805
sg5
VStaples
p806
sg7
V33990
p807
sg9
VNot sold at this location
p808
sg11
V\u000A\u000A1631 Del Prado Blvd.\u000ACape Coral \u000AFL\u000A33990\u000A
p809
sg13
VFL
p810
sg15
I0
sg16
V26.621270
p811
sg18
V-81.940050
p812
sg20
S'Monday, 07. May 2012 09:50PM'
p813
sg22
L736L
ssL228L
(dp814
g3
V1623
p815
sg5
VStaples
p816
sg7
V32159
p817
sg9
VLow Stock
p818
sg11
V\u000A\u000A720 US Hwy. 441\u000ALady Lake (The Villages) \u000AFL\u000A32159\u000A
p819
sg13
VFL
p820
sg15
I2
sg16
V28.934550
p821
sg18
V-81.938970
p822
sg20
S'Monday, 07. May 2012 09:50PM'
p823
sg22
L228L
ssL229L
(dp824
g3
V1672
p825
sg5
VStaples
p826
sg7
V33156
p827
sg9
VNot sold at this location
p828
sg11
V\u000A\u000A9801 South Dixie Hwy (US 1)\u000APinecrest \u000AFL\u000A33156\u000A
p829
sg13
VFL
p830
sg15
I0
sg16
V25.679800
p831
sg18
V-80.317530
p832
sg20
S'Monday, 07. May 2012 09:50PM'
p833
sg22
L229L
ssL1255L
(dp834
g3
V1072
p835
sg5
VStaples
p836
sg7
V32303
p837
sg9
VLow Stock
p838
sg11
V\u000A\u000A2241 North Monroe Street\u000ATallahassee \u000AFL\u000A32303\u000A
p839
sg13
VFL
p840
sg15
I2
sg16
V30.470700
p841
sg18
V-84.289700
p842
sg20
S'Monday, 07. May 2012 09:50PM'
p843
sg22
L1255L
ssL7833L
(dp844
g77
V1039
p845
sg108
VDadeland
p846
sg80
V33143
p847
sg111
VAvailable
p848
sg76
I3
sg74
S'Thursday, 10. May 2012 09:57PM'
p849
sg79
L7833L
ssL236L
(dp850
g3
V1729
p851
sg5
VStaples
p852
sg7
V33062
p853
sg9
VNot sold at this location
p854
sg11
V\u000AThe Marketplace at Pompano\u000AS. 1245 Federal Highway\u000APompano \u000AFL\u000A33062\u000A
p855
sg13
VFL
p856
sg15
I0
sg16
V26.214810
p857
sg18
V-80.105730
p858
sg20
S'Monday, 07. May 2012 09:50PM'
p859
sg22
L236L
ssL8429L
(dp860
g77
V1859
p861
sg108
VLakeland North
p862
sg80
V33809
p863
sg111
VAvailable
p864
sg76
I3
sg74
S'Thursday, 10. May 2012 09:57PM'
p865
sg79
L8429L
ssL238L
(dp866
g3
V1752
p867
sg5
VStaples
p868
sg7
V33334
p869
sg9
VNot sold at this location
p870
sg11
V\u000A\u000A1707 E Commercial Blvd\u000AFt Lauderdale \u000AFL\u000A33334\u000A
p871
sg13
VFL
p872
sg15
I0
sg16
V26.189040
p873
sg18
V-80.124440
p874
sg20
S'Monday, 07. May 2012 09:50PM'
p875
sg22
L238L
ssL7919L
(dp876
g77
V1131
p877
sg108
VSt Petersburg Gateway
p878
sg80
V33702
p879
sg111
VAvailable
p880
sg76
I3
sg74
S'Thursday, 10. May 2012 09:57PM'
p881
sg79
L7919L
ssL752L
(dp882
g3
V1679
p883
sg5
VStaples
p884
sg7
V34471
p885
sg9
VIn Stock
p886
sg11
V\u000A\u000A2497 South West 27th Avenue\u000AOcala \u000AFL\u000A34471\u000A
p887
sg13
VFL
p888
sg15
I3
sg16
V29.163050
p889
sg18
V-82.168590
p890
sg20
S'Monday, 07. May 2012 09:50PM'
p891
sg22
L752L
ssL241L
(dp892
g3
V1683
p893
sg5
VStaples
p894
sg7
V33409
p895
sg9
VLow Stock
p896
sg11
V\u000A\u000A2029 Okeechobee Blvd.\u000AWest Palm Beach \u000AFL\u000A33409\u000A
p897
sg13
VFL
p898
sg15
I2
sg16
V26.706560
p899
sg18
V-80.081400
p900
sg20
S'Monday, 07. May 2012 09:50PM'
p901
sg22
L241L
ssL244L
(dp902
g3
V0945
p903
sg5
VStaples
p904
sg7
V33618
p905
sg9
VLow Stock
p906
sg11
V\u000A\u000A15110 N. Dale Mabry\u000ATampa \u000AFL\u000A33618\u000A
p907
sg13
VFL
p908
sg15
I2
sg16
V28.085810
p909
sg18
V-82.505480
p910
sg20
S'Monday, 07. May 2012 09:50PM'
p911
sg22
L244L
ssL8577L
(dp912
g77
V2032
p913
sg108
VOrlando East
p914
sg80
V32792
p915
sg111
VAvailable
p916
sg76
I3
sg74
S'Thursday, 10. May 2012 09:57PM'
p917
sg79
L8577L
ssL1274L
(dp918
g3
V1827
p919
sg5
VStaples
p920
sg7
V34769
p921
sg9
VOut of Stock
p922
sg11
V\u000AThe Oaks Shopping Center\u000A4058 13th Street\u000ASt. Cloud \u000AFL\u000A34769\u000A
p923
sg13
VFL
p924
sg15
I-1
sg16
V28.251380
p925
sg18
V-81.313180
p926
sg20
S'Monday, 07. May 2012 09:50PM'
p927
sg22
L1274L
ssL8956L
(dp928
g77
V2445
p929
sg108
VPensacola West
p930
sg80
V32506
p931
sg111
VAvailable
p932
sg76
I3
sg74
S'Thursday, 10. May 2012 09:57PM'
p933
sg79
L8956L
ssL772L
(dp934
g3
V0421
p935
sg5
VStaples
p936
sg7
V33948
p937
sg9
VLow Stock
p938
sg11
V\u000A\u000A1825 Tamiami Trail\u000APort Charlotte \u000AFL\u000A33948\u000A
p939
sg13
VFL
p940
sg15
I2
sg16
V27.005200
p941
sg18
V-82.132400
p942
sg20
S'Monday, 07. May 2012 09:50PM'
p943
sg22
L772L
ssL1286L
(dp944
g3
V1861
p945
sg5
VStaples
p946
sg7
V33905
p947
sg9
VNot sold at this location
p948
sg11
V\u000AColonial Drive and I75\u000A3236 Forum Blvd\u000AFort Myers \u000AFL\u000A33905\u000A
p949
sg13
VFL
p950
sg15
I0
sg16
V26.615420
p951
sg18
V-81.799400
p952
sg20
S'Monday, 07. May 2012 09:50PM'
p953
sg22
L1286L
ssL263L
(dp954
g3
V1843
p955
sg5
VStaples
p956
sg7
V33837
p957
sg9
VIn Stock
p958
sg11
V\u000A\u000A3500 Posner Blvd.\u000ADavenport \u000AFL\u000A33837\u000A
p959
sg13
VFL
p960
sg15
I3
sg16
V28.232090
p961
sg18
V-81.649360
p962
sg20
S'Monday, 07. May 2012 09:50PM'
p963
sg22
L263L
ssL7639L
(dp964
g74
S'Thursday, 10. May 2012 09:57PM'
p965
sg76
Nsg77
V0813
p966
sg79
L7639L
sg80
V34293
p967
ssL7949L
(dp968
g77
V1163
p969
sg108
VFt Lauderdale
p970
sg80
V33306
p971
sg111
VAvailable
p972
sg76
I3
sg74
S'Thursday, 10. May 2012 09:57PM'
p973
sg79
L7949L
ssL786L
(dp974
g3
V1820
p975
sg5
VStaples
p976
sg7
V32712
p977
sg9
VNot sold at this location
p978
sg11
V\u000AApopka Commons\u000A1626 West Orange Blossom Trail\u000AApopka \u000AFL\u000A32712\u000A
p979
sg13
VFL
p980
sg15
I0
sg16
V28.686850
p981
sg18
V-81.540820
p982
sg20
S'Monday, 07. May 2012 09:50PM'
p983
sg22
L786L
ssL7641L
(dp984
g74
S'Thursday, 10. May 2012 09:57PM'
p985
sg76
Nsg77
V0816
p986
sg79
L7641L
sg80
V34994
p987
ssL8990L
(dp988
g77
V2489
p989
sg108
VSpring Hill East
p990
sg80
V34604
p991
sg111
VAvailable
p992
sg76
I3
sg74
S'Thursday, 10. May 2012 09:57PM'
p993
sg79
L8990L
ssL287L
(dp994
g3
V0415
p995
sg5
VStaples
p996
sg7
V33477
p997
sg9
VLow Stock
p998
sg11
V\u000AThe Shoppes At Jupiter\u000A201 North US 1\u000AJupiter \u000AFL\u000A33477\u000A
p999
sg13
VFL
p1000
sg15
I2
sg16
V26.936300
p1001
sg18
V-80.081400
p1002
sg20
S'Monday, 07. May 2012 09:50PM'
p1003
sg22
L287L
ssL48L
(dp1004
g3
V1038
p1005
sg5
VStaples
p1006
sg7
V32746
p1007
sg9
VIn Stock
p1008
sg11
V\u000A\u000A4215 Lake Mary Blvd.\u000ALake Mary \u000AFL\u000A32746\u000A
p1009
sg13
VFL
p1010
sg15
I3
sg16
V28.755200
p1011
sg18
V-81.347700
p1012
sg20
S'Monday, 07. May 2012 09:50PM'
p1013
sg22
L48L
ssL8486L
(dp1014
g77
V1918
p1015
sg108
VKissimmee West
p1016
sg80
V34746
p1017
sg111
VAvailable
p1018
sg76
I3
sg74
S'Thursday, 10. May 2012 09:57PM'
p1019
sg79
L8486L
ssL8489L
(dp1020
g77
V1921
p1021
sg108
VJacksonville East
p1022
sg80
V32224
p1023
sg111
VAvailable
p1024
sg76
I3
sg74
S'Thursday, 10. May 2012 09:57PM'
p1025
sg79
L8489L
ssL8057L
(dp1026
g77
V1273
p1027
sg108
VPensacola NE
p1028
sg80
V32514
p1029
sg111
VAvailable
p1030
sg76
I3
sg74
S'Thursday, 10. May 2012 09:57PM'
p1031
sg79
L8057L
ssL1331L
(dp1032
g3
V0202
p1033
sg5
VStaples
p1034
sg7
V33713
p1035
sg9
VLow Stock
p1036
sg11
V\u000A\u000A2004 34th Street North\u000ASt. Petersburg \u000AFL\u000A33713\u000A
p1037
sg13
VFL
p1038
sg15
I2
sg16
V27.791540
p1039
sg18
V-82.680220
p1040
sg20
S'Monday, 07. May 2012 09:50PM'
p1041
sg22
L1331L
ssL8764L
(dp1042
g77
V2233
p1043
sg108
VJacksonville West
p1044
sg80
V32222
p1045
sg111
VAvailable
p1046
sg76
I3
sg74
S'Thursday, 10. May 2012 09:57PM'
p1047
sg79
L8764L
ssL8502L
(dp1048
g77
V1934
p1049
sg108
VViera
p1050
sg80
V32940
p1051
sg111
VAvailable
p1052
sg76
I3
sg74
S'Thursday, 10. May 2012 09:57PM'
p1053
sg79
L8502L
ssL8503L
(dp1054
g77
V1935
p1055
sg108
VRoyal Palm Beach
p1056
sg80
V33411
p1057
sg111
VAvailable
p1058
sg76
I3
sg74
S'Thursday, 10. May 2012 09:57PM'
p1059
sg79
L8503L
ssL827L
(dp1060
g3
V1654
p1061
sg5
VStaples
p1062
sg7
V33012
p1063
sg9
VIn Stock
p1064
sg11
V\u000A\u000A1700 West 49th Street\u000AHialeah \u000AFL\u000A33012\u000A
p1065
sg13
VFL
p1066
sg15
I3
sg16
V25.866350
p1067
sg18
V-80.315960
p1068
sg20
S'Monday, 07. May 2012 09:50PM'
p1069
sg22
L827L
ssL7563L
(dp1070
g74
S'Thursday, 10. May 2012 09:57PM'
p1071
sg76
Nsg77
V0686
p1072
sg79
L7563L
sg80
V32503
p1073
ssL8509L
(dp1074
g77
V1941
p1075
sg108
VLake Park/Palm Beach Gardens
p1076
sg80
V33403
p1077
sg111
VAvailable
p1078
sg76
I3
sg74
S'Thursday, 10. May 2012 09:57PM'
p1079
sg79
L8509L
ssL7529L
(dp1080
g74
S'Thursday, 10. May 2012 09:57PM'
p1081
sg76
Nsg77
V0645
p1082
sg79
L7529L
sg80
V32225
p1083
ssL320L
(dp1084
g3
V0649
p1085
sg5
VStaples
p1086
sg7
V34293
p1087
sg9
VLow Stock
p1088
sg11
V\u000A\u000A4291 S. Tamiami Trail\u000AVenice \u000AFL\u000A34293\u000A
p1089
sg13
VFL
p1090
sg15
I2
sg16
V27.050360
p1091
sg18
V-82.390010
p1092
sg20
S'Monday, 07. May 2012 09:50PM'
p1093
sg22
L320L
ssL9025L
(dp1094
g77
V2547
p1095
sg108
VWest Melbourne
p1096
sg80
V32904
p1097
sg111
VAvailable
p1098
sg76
I3
sg74
S'Thursday, 10. May 2012 09:57PM'
p1099
sg79
L9025L
ssL834L
(dp1100
g3
V0624
p1101
sg5
VStaples
p1102
sg7
V34952
p1103
sg9
VOut of Stock
p1104
sg11
V\u000A\u000A10139 SE US Hwy 1\u000APort St. Lucie \u000AFL\u000A34952\u000A
p1105
sg13
VFL
p1106
sg15
I-1
sg16
V27.271600
p1107
sg18
V-80.290100
p1108
sg20
S'Monday, 07. May 2012 09:50PM'
p1109
sg22
L834L
ssL1347L
(dp1110
g3
V1060
p1111
sg5
VStaples
p1112
sg7
V32301
p1113
sg9
VNot sold at this location
p1114
sg11
V\u000A\u000A2345 Apalachee Parkway\u000ATallahassee \u000AFL\u000A32301\u000A
p1115
sg13
VFL
p1116
sg15
I0
sg16
V30.429300
p1117
sg18
V-84.242400
p1118
sg20
S'Monday, 07. May 2012 09:50PM'
p1119
sg22
L1347L
ssL838L
(dp1120
g3
V0211
p1121
sg5
VStaples
p1122
sg7
V34668
p1123
sg9
VNot sold at this location
p1124
sg11
V\u000AThe Piers Shop Ctr\u000A6239 Tacoma Drive\u000APort Richey \u000AFL\u000A34668\u000A
p1125
sg13
VFL
p1126
sg15
I0
sg16
V28.296240
p1127
sg18
V-82.709510
p1128
sg20
S'Monday, 07. May 2012 09:50PM'
p1129
sg22
L838L
ssL1355L
(dp1130
g3
V1004
p1131
sg5
VStaples
p1132
sg7
V32819
p1133
sg9
VNot sold at this location
p1134
sg11
V\u000ASand Lake\u000A8421 S John Young Pkwy\u000AOrlando \u000AFL\u000A32819\u000A
p1135
sg13
VFL
p1136
sg15
I0
sg16
V28.449400
p1137
sg18
V-81.424400
p1138
sg20
S'Monday, 07. May 2012 09:50PM'
p1139
sg22
L1355L
ssL333L
(dp1140
g3
V1622
p1141
sg5
VStaples
p1142
sg7
V34711
p1143
sg9
VOut of Stock
p1144
sg11
V\u000A\u000A1600 South Grand Highway\u000AClermont \u000AFL\u000A34711\u000A
p1145
sg13
VFL
p1146
sg15
I-1
sg16
V28.546510
p1147
sg18
V-81.741270
p1148
sg20
S'Monday, 07. May 2012 09:50PM'
p1149
sg22
L333L
ssL8077L
(dp1150
g77
V1294
p1151
sg108
VSt Augustine
p1152
sg80
V32084
p1153
sg111
VAvailable
p1154
sg76
I3
sg74
S'Thursday, 10. May 2012 09:57PM'
p1155
sg79
L8077L
ssL336L
(dp1156
g3
V1735
p1157
sg5
VStaples
p1158
sg7
V33144
p1159
sg9
VNot sold at this location
p1160
sg11
V\u000A(67th and 8th)\u000A1044 SW 67th Ave\u000AMIAMI \u000AFL\u000A33144\u000A
p1161
sg13
VFL
p1162
sg15
I0
sg16
V25.763440
p1163
sg18
V-80.305300
p1164
sg20
S'Monday, 07. May 2012 09:50PM'
p1165
sg22
L336L
ssL338L
(dp1166
g3
V1673
p1167
sg5
VStaples
p1168
sg7
V33176
p1169
sg9
VNot sold at this location
p1170
sg11
V\u000AKendall Mall\u000A8811 SW 107th Avenue\u000AMiami \u000AFL\u000A33176\u000A
p1171
sg13
VFL
p1172
sg15
I0
sg16
V25.687940
p1173
sg18
V-80.368630
p1174
sg20
S'Monday, 07. May 2012 09:50PM'
p1175
sg22
L338L
ssL8534L
(dp1176
g77
V1966
p1177
sg108
VSanford
p1178
sg80
V32771
p1179
sg111
VAvailable
p1180
sg76
I3
sg74
S'Thursday, 10. May 2012 09:57PM'
p1181
sg79
L8534L
ssL8535L
(dp1182
g77
V1967
p1183
sg108
VSeven Springs
p1184
sg80
V34655
p1185
sg111
VAvailable
p1186
sg76
I3
sg74
S'Thursday, 10. May 2012 09:57PM'
p1187
sg79
L8535L
ssL740L
(dp1188
g3
V0191
p1189
sg5
VStaples
p1190
sg7
V34207
p1191
sg9
VNot sold at this location
p1192
sg11
V\u000A\u000A5627 14th Street West\u000ABradenton \u000AFL\u000A34207\u000A
p1193
sg13
VFL
p1194
sg15
I0
sg16
V27.440500
p1195
sg18
V-82.575200
p1196
sg20
S'Monday, 07. May 2012 09:50PM'
p1197
sg22
L740L
ssL349L
(dp1198
g3
V1220
p1199
sg5
VStaples
p1200
sg7
V34201
p1201
sg9
VIn Stock
p1202
sg11
V\u000A\u000A5429 University Pkwy\u000AUniversity Park \u000AFL\u000A34201\u000A
p1203
sg13
VFL
p1204
sg15
I3
sg16
V27.390720
p1205
sg18
V-82.460470
p1206
sg20
S'Monday, 07. May 2012 09:50PM'
p1207
sg22
L349L
ssL8542L
(dp1208
g77
V1974
p1209
sg108
VJacksonville St Johns
p1210
sg80
V32246
p1211
sg111
VAvailable
p1212
sg76
I3
sg74
S'Thursday, 10. May 2012 09:57PM'
p1213
sg79
L8542L
ssL352L
(dp1214
g3
V1927
p1215
sg5
VStaples
p1216
sg7
V34236
p1217
sg9
VIn Stock
p1218
sg11
V\u000A\u000A1900 Fruitville Road\u000ASarasota \u000AFL\u000A34236\u000A
p1219
sg13
VFL
p1220
sg15
I3
sg16
V27.338840
p1221
sg18
V-82.532280
p1222
sg20
S'Monday, 07. May 2012 09:50PM'
p1223
sg22
L352L
ssL7524L
(dp1224
g74
S'Thursday, 10. May 2012 09:57PM'
p1225
sg76
Nsg77
V0638
p1226
sg79
L7524L
sg80
V33428
p1227
ssL7527L
(dp1228
g74
S'Thursday, 10. May 2012 09:57PM'
p1229
sg76
Nsg77
V0642
p1230
sg79
L7527L
sg80
V33444
p1231
ssL1385L
(dp1232
g3
V1055
p1233
sg5
VStaples
p1234
sg7
V32935
p1235
sg9
VIn Stock
p1236
sg11
V\u000ASuite #13\u000A1270-13 North Wickham Road\u000AMelbourne \u000AFL\u000A32935\u000A
p1237
sg13
VFL
p1238
sg15
I3
sg16
V28.126550
p1239
sg18
V-80.674030
p1240
sg20
S'Monday, 07. May 2012 09:50PM'
p1241
sg22
L1385L
ssL7530L
(dp1242
g74
S'Thursday, 10. May 2012 09:57PM'
p1243
sg76
Nsg77
V0647
p1244
sg79
L7530L
sg80
V32714
p1245
ssL8423L
(dp1246
g77
V1853
p1247
sg108
VOrtega
p1248
sg80
V32244
p1249
sg111
VAvailable
p1250
sg76
I3
sg74
S'Thursday, 10. May 2012 09:57PM'
p1251
sg79
L8423L
ssL7532L
(dp1252
g74
S'Thursday, 10. May 2012 09:57PM'
p1253
sg76
Nsg77
V0650
p1254
sg79
L7532L
sg80
V32809
p1255
ssL7533L
(dp1256
g74
S'Thursday, 10. May 2012 09:57PM'
p1257
sg76
Nsg77
V0652
p1258
sg79
L7533L
sg80
V34685
p1259
ssL7534L
(dp1260
g74
S'Thursday, 10. May 2012 09:57PM'
p1261
sg76
Nsg77
V0654
p1262
sg79
L7534L
sg80
V33771
p1263
ssL7535L
(dp1264
g74
S'Thursday, 10. May 2012 09:57PM'
p1265
sg76
Nsg77
V0655
p1266
sg79
L7535L
sg80
V33618
p1267
ssL7536L
(dp1268
g74
S'Thursday, 10. May 2012 09:57PM'
p1269
sg76
Nsg77
V0656
p1270
sg79
L7536L
sg80
V33613
p1271
ssL8567L
(dp1272
g77
V2022
p1273
sg108
VDavie
p1274
sg80
V33328
p1275
sg111
VAvailable
p1276
sg76
I3
sg74
S'Thursday, 10. May 2012 09:57PM'
p1277
sg79
L8567L
ssL1401L
(dp1278
g3
V1781
p1279
sg5
VStaples
p1280
sg7
V32828
p1281
sg9
VNot sold at this location
p1282
sg11
V\u000A\u000A638 N Alafaya Trail\u000AOrlando \u000AFL\u000A32828\u000A
p1283
sg13
VFL
p1284
sg15
I0
sg16
V28.562960
p1285
sg18
V-81.210050
p1286
sg20
S'Monday, 07. May 2012 09:50PM'
p1287
sg22
L1401L
ssL7548L
(dp1288
g74
S'Thursday, 10. May 2012 09:57PM'
p1289
sg76
Nsg77
V0669
p1290
sg79
L7548L
sg80
V32256
p1291
ssL896L
(dp1292
g3
V1784
p1293
sg5
VStaples
p1294
sg7
V33322
p1295
sg9
VNot sold at this location
p1296
sg11
V\u000A\u000A1937 N Pine Island Rd\u000APlantation \u000AFL\u000A33322\u000A
p1297
sg13
VFL
p1298
sg15
I0
sg16
V26.146070
p1299
sg18
V-80.268120
p1300
sg20
S'Monday, 07. May 2012 09:50PM'
p1301
sg22
L896L
ssL1344L
(dp1302
g3
V0229
p1303
sg5
VStaples
p1304
sg7
V33778
p1305
sg9
VLow Stock
p1306
sg11
V\u000ALargo Mall\u000A13013 Seminole Blvd\u000ALargo \u000AFL\u000A33778\u000A
p1307
sg13
VFL
p1308
sg15
I2
sg16
V27.894490
p1309
sg18
V-82.787150
p1310
sg20
S'Monday, 07. May 2012 09:50PM'
p1311
sg22
L1344L
ssL8579L
(dp1312
g77
V2034
p1313
sg108
VUniversity Parkway
p1314
sg80
V34243
p1315
sg111
VAvailable
p1316
sg76
I3
sg74
S'Thursday, 10. May 2012 09:57PM'
p1317
sg79
L8579L
ssL900L
(dp1318
g3
V0344
p1319
sg5
VStaples
p1320
sg7
V33880
p1321
sg9
VLow Stock
p1322
sg11
V\u000ACiti Centre\u000A700 3rd St SW 470 Citi Centre\u000AWinter Haven \u000AFL\u000A33880\u000A
p1323
sg13
VFL
p1324
sg15
I2
sg16
V28.011970
p1325
sg18
V-81.730100
p1326
sg20
S'Monday, 07. May 2012 09:50PM'
p1327
sg22
L900L
ssL8584L
(dp1328
g77
V2040
p1329
sg108
VTampa Central Walter's Crossing
p1330
sg80
V33607
p1331
sg111
VAvailable
p1332
sg76
I3
sg74
S'Thursday, 10. May 2012 09:57PM'
p1333
sg79
L8584L
ssL8940L
(dp1334
g77
V2427
p1335
sg108
VWest Palm Beach
p1336
sg80
V33401
p1337
sg111
VAvailable
p1338
sg76
I3
sg74
S'Thursday, 10. May 2012 09:57PM'
p1339
sg79
L8940L
ssL395L
(dp1340
g3
V0441
p1341
sg5
VStaples
p1342
sg7
V34982
p1343
sg9
VIn Stock
p1344
sg11
V\u000ASable Palm Plaza\u000A2609 South Federal Highway\u000AFort Pierce \u000AFL\u000A34982\u000A
p1345
sg13
VFL
p1346
sg15
I3
sg16
V27.423900
p1347
sg18
V-80.326600
p1348
sg20
S'Monday, 07. May 2012 09:50PM'
p1349
sg22
L395L
ssL7564L
(dp1350
g74
S'Thursday, 10. May 2012 09:57PM'
p1351
sg76
Nsg77
V0687
p1352
sg79
L7564L
sg80
V32608
p1353
ssL7565L
(dp1354
g74
S'Thursday, 10. May 2012 09:57PM'
p1355
sg76
Nsg77
V0688
p1356
sg79
L7565L
sg80
V32114
p1357
ssL7566L
(dp1358
g74
S'Thursday, 10. May 2012 09:57PM'
p1359
sg76
Nsg77
V0689
p1360
sg79
L7566L
sg80
V32904
p1361
ssL7567L
(dp1362
g74
S'Thursday, 10. May 2012 09:57PM'
p1363
sg76
Nsg77
V0690
p1364
sg79
L7567L
sg80
V33948
p1365
ssL7568L
(dp1366
g74
S'Thursday, 10. May 2012 09:57PM'
p1367
sg76
Nsg77
V0691
p1368
sg79
L7568L
sg80
V34788
p1369
ssL8081L
(dp1370
g77
V1299
p1371
sg108
VLakeland South
p1372
sg80
V33803
p1373
sg111
VAvailable
p1374
sg76
I3
sg74
S'Thursday, 10. May 2012 09:57PM'
p1375
sg79
L8081L
ssL8082L
(dp1376
g77
V1300
p1377
sg108
VJacksonville Mandarin
p1378
sg80
V32257
p1379
sg111
VAvailable
p1380
sg76
I3
sg74
S'Thursday, 10. May 2012 09:57PM'
p1381
sg79
L8082L
ssL750L
(dp1382
g3
V1208
p1383
sg5
VStaples
p1384
sg7
V33483
p1385
sg9
VNot sold at this location
p1386
sg11
V\u000AThe Plaza at Delray\u000A1626 S. Federal Highway\u000ADelray Beach \u000AFL\u000A33483\u000A
p1387
sg13
VFL
p1388
sg15
I0
sg16
V26.440520
p1389
sg18
V-80.072420
p1390
sg20
S'Monday, 07. May 2012 09:50PM'
p1391
sg22
L750L
ssL8599L
(dp1392
g77
V2058
p1393
sg108
VLady Lake
p1394
sg80
V32159
p1395
sg111
VAvailable
p1396
sg76
I3
sg74
S'Thursday, 10. May 2012 09:57PM'
p1397
sg79
L8599L
ssL8600L
(dp1398
g77
V2059
p1399
sg108
VLee County
p1400
sg80
V33913
p1401
sg111
VAvailable
p1402
sg76
I3
sg74
S'Thursday, 10. May 2012 09:57PM'
p1403
sg79
L8600L
ssL8603L
(dp1404
g77
V2062
p1405
sg108
VMt Dora
p1406
sg80
V32757
p1407
sg111
VAvailable
p1408
sg76
I3
sg74
S'Thursday, 10. May 2012 09:57PM'
p1409
sg79
L8603L
ssL8604L
(dp1410
g77
V2063
p1411
sg108
VNaples North
p1412
sg80
V34119
p1413
sg111
VAvailable
p1414
sg76
I3
sg74
S'Thursday, 10. May 2012 09:57PM'
p1415
sg79
L8604L
ssL8605L
(dp1416
g77
V2064
p1417
sg108
VPinellas Park
p1418
sg80
V33781
p1419
sg111
VAvailable
p1420
sg76
I3
sg74
S'Thursday, 10. May 2012 09:57PM'
p1421
sg79
L8605L
ssL8606L
(dp1422
g77
V2065
p1423
sg108
VWellington South
p1424
sg80
V33449
p1425
sg111
VLimited Availability
p1426
sg76
I2
sg74
S'Thursday, 10. May 2012 09:57PM'
p1427
sg79
L8606L
ssL8608L
(dp1428
g77
V2067
p1429
sg108
VBoynton Beach West
p1430
sg80
V33437
p1431
sg111
VAvailable
p1432
sg76
I3
sg74
S'Thursday, 10. May 2012 09:57PM'
p1433
sg79
L8608L
ssL7585L
(dp1434
g74
S'Thursday, 10. May 2012 09:57PM'
p1435
sg76
Nsg77
V0740
p1436
sg79
L7585L
sg80
V32569
p1437
ssL930L
(dp1438
g3
V1655
p1439
sg5
VStaples
p1440
sg7
V33063
p1441
sg9
VNot sold at this location
p1442
sg11
V\u000A\u000A5307 West Atlantic Boulevard\u000AMargate \u000AFL\u000A33063\u000A
p1443
sg13
VFL
p1444
sg15
I0
sg16
V26.236030
p1445
sg18
V-80.197660
p1446
sg20
S'Monday, 07. May 2012 09:50PM'
p1447
sg22
L930L
ssL8859L
(dp1448
g695
V2339
p1449
sg697
VWasilla
p1450
sg699
VLimited Availability
p1451
sg701
S'Thursday, 10. May 2012 03:04PM'
p1452
sg703
I2
sg704
L8859L
ssL934L
(dp1453
g3
V0625
p1454
sg5
VStaples
p1455
sg7
V32960
p1456
sg9
VLow Stock
p1457
sg11
V\u000A\u000A1191 US Highway 1\u000AVero Beach \u000AFL\u000A32960\u000A
p1458
sg13
VFL
p1459
sg15
I2
sg16
V27.622450
p1460
sg18
V-80.389760
p1461
sg20
S'Monday, 07. May 2012 09:50PM'
p1462
sg22
L934L
ssL941L
(dp1463
g3
V1173
p1464
sg5
VStaples
p1465
sg7
V33625
p1466
sg9
VIn Stock
p1467
sg11
V\u000A\u000A12845 Citrus Plaza Drive\u000ATampa \u000AFL\u000A33625\u000A
p1468
sg13
VFL
p1469
sg15
I3
sg16
V28.064830
p1470
sg18
V-82.573550
p1471
sg20
S'Monday, 07. May 2012 09:50PM'
p1472
sg22
L941L
ssL645L
(dp1473
g3
V1736
p1474
sg5
VStaples
p1475
sg7
V33162
p1476
sg9
VNot sold at this location
p1477
sg11
V\u000A\u000A735 NE 167th St.\u000ANorth Miami Beach \u000AFL\u000A33162\u000A
p1478
sg13
VFL
p1479
sg15
I0
sg16
V25.929290
p1480
sg18
V-80.185810
p1481
sg20
S'Monday, 07. May 2012 09:50PM'
p1482
sg22
L645L
ssL8626L
(dp1483
g77
V2085
p1484
sg108
VDestin
p1485
sg80
V32541
p1486
sg111
VAvailable
p1487
sg76
I3
sg74
S'Thursday, 10. May 2012 09:57PM'
p1488
sg79
L8626L
ssL8116L
(dp1489
g77
V1337
p1490
sg108
VDeerfield Beach
p1491
sg80
V33441
p1492
sg111
VAvailable
p1493
sg76
I3
sg74
S'Thursday, 10. May 2012 09:57PM'
p1494
sg79
L8116L
ssL949L
(dp1495
g3
V1064
p1496
sg5
VStaples
p1497
sg7
V33813
p1498
sg9
VOut of Stock
p1499
sg11
V\u000A\u000A4313 South Florida Ave.\u000ALakeland \u000AFL\u000A33813\u000A
p1500
sg13
VFL
p1501
sg15
I-1
sg16
V27.987200
p1502
sg18
V-81.957000
p1503
sg20
S'Monday, 07. May 2012 09:50PM'
p1504
sg22
L949L
ssL950L
(dp1505
g3
V1031
p1506
sg5
VStaples
p1507
sg7
V32765
p1508
sg9
VLow Stock
p1509
sg11
V\u000AOviedo Crossroads\u000A1950 W. State Road 426\u000AOviedo \u000AFL\u000A32765\u000A
p1510
sg13
VFL
p1511
sg15
I2
sg16
V28.647350
p1512
sg18
V-81.231440
p1513
sg20
S'Monday, 07. May 2012 09:50PM'
p1514
sg22
L950L
ssL951L
(dp1515
g3
V1744
p1516
sg5
VStaples
p1517
sg7
V33324
p1518
sg9
VNot sold at this location
p1519
sg11
V\u000APine Island Shopping Center\u000A8864 State Road 84\u000ADavie \u000AFL\u000A33324\u000A
p1520
sg13
VFL
p1521
sg15
I0
sg16
V26.102240
p1522
sg18
V-80.267180
p1523
sg20
S'Monday, 07. May 2012 09:50PM'
p1524
sg22
L951L
ssL8633L
(dp1525
g77
V2092
p1526
sg108
VDeerfield Beach W
p1527
sg80
V33442
p1528
sg111
VAvailable
p1529
sg76
I3
sg74
S'Thursday, 10. May 2012 09:57PM'
p1530
sg79
L8633L
ssL449L
(dp1531
g3
V1674
p1532
sg5
VStaples
p1533
sg7
V33319
p1534
sg9
VNot sold at this location
p1535
sg11
V\u000A\u000A7500 W. Commercial Blvd.\u000ALauderhill \u000AFL\u000A33319\u000A
p1536
sg13
VFL
p1537
sg15
I0
sg16
V26.193272
p1538
sg18
V-80.251353
p1539
sg20
S'Monday, 07. May 2012 09:50PM'
p1540
sg22
L449L
ssL964L
(dp1541
g3
V1184
p1542
sg5
VStaples
p1543
sg7
V34994
p1544
sg9
VOut of Stock
p1545
sg11
V\u000A\u000A3150 SE Federal Highway\u000AStuart \u000AFL\u000A34994\u000A
p1546
sg13
VFL
p1547
sg15
I-1
sg16
V27.165800
p1548
sg18
V-80.228900
p1549
sg20
S'Monday, 07. May 2012 09:50PM'
p1550
sg22
L964L
ssL965L
(dp1551
g3
V1882
p1552
sg5
VStaples
p1553
sg7
V32536
p1554
sg9
VIn Stock
p1555
sg11
V\u000A\u000A2821 Ferdon Blvd South\u000ACrestview \u000AFL\u000A32536\u000A
p1556
sg13
VFL
p1557
sg15
I3
sg16
V30.731820
p1558
sg18
V-86.566150
p1559
sg20
S'Monday, 07. May 2012 09:50PM'
p1560
sg22
L965L
ssL8647L
(dp1561
g77
V2109
p1562
sg108
VHialeah
p1563
sg80
V33012
p1564
sg111
VAvailable
p1565
sg76
I3
sg74
S'Thursday, 10. May 2012 09:57PM'
p1566
sg79
L8647L
ssL7624L
(dp1567
g74
S'Thursday, 10. May 2012 09:57PM'
p1568
sg76
Nsg77
V0798
p1569
sg79
L7624L
sg80
V33634
p1570
ssL7625L
(dp1571
g74
S'Thursday, 10. May 2012 09:57PM'
p1572
sg76
Nsg77
V0799
p1573
sg79
L7625L
sg80
V34232
p1574
ssL971L
(dp1575
g3
V1199
p1576
sg5
VStaples
p1577
sg7
V33403
p1578
sg9
VIn Stock
p1579
sg11
V\u000ALake Park Shopping Ctr.\u000A1260 Northlake Blvd.\u000ALake Park \u000AFL\u000A33403\u000A
p1580
sg13
VFL
p1581
sg15
I3
sg16
V26.806900
p1582
sg18
V-80.081400
p1583
sg20
S'Monday, 07. May 2012 09:50PM'
p1584
sg22
L971L
ssL7586L
(dp1585
g74
S'Thursday, 10. May 2012 09:57PM'
p1586
sg76
Nsg77
V0746
p1587
sg79
L7586L
sg80
V33196
p1588
ssL8654L
(dp1589
g77
V2118
p1590
sg108
VTampa North
p1591
sg80
V33548
p1592
sg111
VAvailable
p1593
sg76
I3
sg74
S'Thursday, 10. May 2012 09:57PM'
p1594
sg79
L8654L
ssL465L
(dp1595
g3
V1069
p1596
sg5
VStaples
p1597
sg7
V33563
p1598
sg9
VLow Stock
p1599
sg11
V\u000A\u000A1866 Jim Redman Pkwy\u000APlant City \u000AFL\u000A33563\u000A
p1600
sg13
VFL
p1601
sg15
I2
sg16
V27.995040
p1602
sg18
V-82.120590
p1603
sg20
S'Monday, 07. May 2012 09:50PM'
p1604
sg22
L465L
ssL467L
(dp1605
g3
V1034
p1606
sg5
VStaples
p1607
sg7
V32803
p1608
sg9
VLow Stock
p1609
sg11
V\u000A\u000A2774 East Colonial Drive\u000AOrlando \u000AFL\u000A32803\u000A
p1610
sg13
VFL
p1611
sg15
I2
sg16
V28.551910
p1612
sg18
V-81.350120
p1613
sg20
S'Monday, 07. May 2012 09:50PM'
p1614
sg22
L467L
ssL468L
(dp1615
g3
V1716
p1616
sg5
VStaples
p1617
sg7
V34986
p1618
sg9
VLow Stock
p1619
sg11
V\u000A\u000A1729 NW St. Lucie West Blvd\u000APort St. Lucie \u000AFL\u000A34986\u000A
p1620
sg13
VFL
p1621
sg15
I2
sg16
V27.311720
p1622
sg18
V-80.406780
p1623
sg20
S'Monday, 07. May 2012 09:50PM'
p1624
sg22
L468L
ssL7637L
(dp1625
g74
S'Thursday, 10. May 2012 09:57PM'
p1626
sg76
Nsg77
V0811
p1627
sg79
L7637L
sg80
V32405
p1628
ssL7638L
(dp1629
g74
S'Thursday, 10. May 2012 09:57PM'
p1630
sg76
Nsg77
V0812
p1631
sg79
L7638L
sg80
V33511
p1632
ssL471L
(dp1633
g3
V1776
p1634
sg5
VStaples
p1635
sg7
V33909
p1636
sg9
VNot sold at this location
p1637
sg11
V\u000A\u000A1800 Pine Island Road NE\u000ACape Coral \u000AFL\u000A33909\u000A
p1638
sg13
VFL
p1639
sg15
I0
sg16
V26.668730
p1640
sg18
V-81.934460
p1641
sg20
S'Monday, 07. May 2012 09:50PM'
p1642
sg22
L471L
ssL7640L
(dp1643
g74
S'Thursday, 10. May 2012 09:57PM'
p1644
sg76
Nsg77
V0815
p1645
sg79
L7640L
sg80
V33323
p1646
ssL7844L
(dp1647
g77
V1050
p1648
sg108
VVero Beach
p1649
sg80
V32966
p1650
sg111
VAvailable
p1651
sg76
I3
sg74
S'Thursday, 10. May 2012 09:57PM'
p1652
sg79
L7844L
ssL7642L
(dp1653
g74
S'Thursday, 10. May 2012 09:57PM'
p1654
sg76
Nsg77
V0817
p1655
sg79
L7642L
sg80
V34207
p1656
ssL7643L
(dp1657
g74
S'Thursday, 10. May 2012 09:57PM'
p1658
sg76
Nsg77
V0818
p1659
sg79
L7643L
sg80
V33912
p1660
ssL8160L
(dp1661
g77
V1382
p1662
sg108
VNew Tampa
p1663
sg80
V33543
p1664
sg111
VAvailable
p1665
sg76
I3
sg74
S'Thursday, 10. May 2012 09:57PM'
p1666
sg79
L8160L
ssL993L
(dp1667
g3
V1831
p1668
sg5
VStaples
p1669
sg7
V33137
p1670
sg9
VIn Stock
p1671
sg11
V\u000A\u000A2121 Biscayne Blvd\u000AMiami \u000AFL\u000A33137\u000A
p1672
sg13
VFL
p1673
sg15
I3
sg16
V25.797520
p1674
sg18
V-80.188880
p1675
sg20
S'Monday, 07. May 2012 09:50PM'
p1676
sg22
L993L
ssL484L
(dp1677
g3
V0206
p1678
sg5
VStaples
p1679
sg7
V34231
p1680
sg9
VLow Stock
p1681
sg11
V\u000ABeneva Plaza\u000A8199 Tamiami Trail South\u000ASarasota \u000AFL\u000A34231\u000A
p1682
sg13
VFL
p1683
sg15
I2
sg16
V27.234500
p1684
sg18
V-82.498400
p1685
sg20
S'Monday, 07. May 2012 09:50PM'
p1686
sg22
L484L
ssL7654L
(dp1687
g74
S'Thursday, 10. May 2012 09:57PM'
p1688
sg76
Nsg77
V0829
p1689
sg79
L7654L
sg80
V34741
p1690
ssL8682L
(dp1691
g77
V2146
p1692
sg108
VCoral Springs
p1693
sg80
V33073
p1694
sg111
VOut Of Stock
p1695
sg76
I0
sg74
S'Thursday, 10. May 2012 09:57PM'
p1696
sg79
L8682L
ssL8690L
(dp1697
g77
V2155
p1698
sg108
VYulee
p1699
sg80
V32097
p1700
sg111
VLimited Availability
p1701
sg76
I2
sg74
S'Thursday, 10. May 2012 09:57PM'
p1702
sg79
L8690L
ssL7669L
(dp1703
g74
S'Thursday, 10. May 2012 09:57PM'
p1704
sg76
Nsg77
V0844
p1705
sg79
L7669L
sg80
V32301
p1706
ssL7670L
(dp1707
g74
S'Thursday, 10. May 2012 09:57PM'
p1708
sg76
Nsg77
V0845
p1709
sg79
L7670L
sg80
V32746
p1710
ssL1019L
(dp1711
g3
V0882
p1712
sg5
VStaples
p1713
sg7
V34689
p1714
sg9
VLow Stock
p1715
sg11
V\u000A\u000A41334 North Hwy 19\u000ATarpon Springs \u000AFL\u000A34689\u000A
p1716
sg13
VFL
p1717
sg15
I2
sg16
V28.147510
p1718
sg18
V-82.741400
p1719
sg20
S'Monday, 07. May 2012 09:50PM'
p1720
sg22
L1019L
ss.