(dp1
L1024L
(dp2
S'num'
p3
V0209
p4
sS'name'
p5
VStaples
p6
sS'zipcode'
p7
V33612
p8
sS'availbility'
p9
VLow Stock
p10
sS'store_name'
p11
V\u000A\u000A11806 Bruce B. Downs Blvd.\u000ATampa \u000AFL\u000A33612\u000A
p12
sS'state'
p13
VFL
p14
sS'availcode'
p15
I2
sS'lat'
p16
V28.053660
p17
sS'lng'
p18
V-82.426480
p19
sS'last_update'
p20
S'Monday, 07. May 2012 09:55PM'
p21
sS'id'
p22
L1024L
ssL1L
(dp23
g3
V1915
p24
sg5
VStaples
p25
sg7
V32250
p26
sg9
VIn Stock
p27
sg11
V\u000A\u000A4016 South Third Street\u000AJacksonville Beach \u000AFL\u000A32250\u000A
p28
sg13
VFL
p29
sg15
I3
sg16
V30.256190
p30
sg18
V-81.388800
p31
sg20
S'Monday, 07. May 2012 09:55PM'
p32
sg22
L1L
ssL1027L
(dp33
g3
V0214
p34
sg5
VStaples
p35
sg7
V32707
p36
sg9
VIn Stock
p37
sg11
V\u000ACasselberry Exchange\u000A5779 S. Hwy. 17-92\u000ACasselberry \u000AFL\u000A32707\u000A
p38
sg13
VFL
p39
sg15
I3
sg16
V28.661600
p40
sg18
V-81.341380
p41
sg20
S'Monday, 07. May 2012 09:55PM'
p42
sg22
L1027L
ssL5L
(dp43
g3
V0210
p44
sg5
VStaples
p45
sg7
V33511
p46
sg9
VIn Stock
p47
sg11
V\u000ARegency Square\u000A2424 W. Brandon Blvd.\u000ABrandon \u000AFL\u000A33511\u000A
p48
sg13
VFL
p49
sg15
I3
sg16
V27.938520
p50
sg18
V-82.322300
p51
sg20
S'Monday, 07. May 2012 09:55PM'
p52
sg22
L5L
ssL1035L
(dp53
g3
V1092
p54
sg5
VStaples
p55
sg7
V32114
p56
sg9
VLow Stock
p57
sg11
V\u000A\u000A2500 W. International Speedway Blvd.\u000ADaytona Beach \u000AFL\u000A32114\u000A
p58
sg13
VFL
p59
sg15
I2
sg16
V29.179630
p60
sg18
V-81.083020
p61
sg20
S'Monday, 07. May 2012 09:55PM'
p62
sg22
L1035L
ssL12L
(dp63
g3
V0203
p64
sg5
VStaples
p65
sg7
V33765
p66
sg9
VLow Stock
p67
sg11
V\u000ASunset Point Center\u000A23660 U.S. Hwy 19 N.\u000AClearwater \u000AFL\u000A33765\u000A
p68
sg13
VFL
p69
sg15
I2
sg16
V27.988150
p70
sg18
V-82.730660
p71
sg20
S'Monday, 07. May 2012 09:55PM'
p72
sg22
L12L
ssL7696L
(dp73
S'num'
p74
V873
p75
sS'name'
p76
VOcala
p77
sS'zipcode'
p78
V34471
p79
sS'availbility'
p80
VAvailable
p81
sS'availcode'
p82
I3
sS'last_update'
p83
S'Thursday, 10. May 2012 09:59PM'
p84
sS'id'
p85
L7696L
ssL8721L
(dp86
g74
V2188
p87
sg76
VMiami Central
p88
sg78
V33127
p89
sg80
VAvailable
p90
sg82
I3
sg83
S'Thursday, 10. May 2012 09:59PM'
p91
sg85
L8721L
ssL1044L
(dp92
g3
V1721
p93
sg5
VStaples
p94
sg7
V33186
p95
sg9
VIn Stock
p96
sg11
V\u000ACarter Square\u000A13640 North Kendall Drive\u000AMiami \u000AFL\u000A33186\u000A
p97
sg13
VFL
p98
sg15
I3
sg16
V25.684520
p99
sg18
V-80.415700
p100
sg20
S'Monday, 07. May 2012 09:55PM'
p101
sg22
L1044L
ssL24L
(dp102
g3
V0235
p103
sg5
VStaples
p104
sg7
V34470
p105
sg9
VIn Stock
p106
sg11
V\u000A\u000A1901 East Silversprings Blvd\u000AOcala \u000AFL\u000A34470\u000A
p107
sg13
VFL
p108
sg15
I3
sg16
V29.186500
p109
sg18
V-82.112000
p110
sg20
S'Monday, 07. May 2012 09:55PM'
p111
sg22
L24L
ssL8729L
(dp112
g74
V2196
p113
sg76
VMiami Lakes
p114
sg78
V33055
p115
sg80
VAvailable
p116
sg82
I3
sg83
S'Thursday, 10. May 2012 09:59PM'
p117
sg85
L8729L
ssL26L
(dp118
g3
V1738
p119
sg5
VStaples
p120
sg7
V33326
p121
sg9
VNot sold at this location
p122
sg11
V\u000A\u000A15860 W SR 84\u000ASunrise \u000AFL\u000A33326\u000A
p123
sg13
VFL
p124
sg15
I0
sg16
V26.123840
p125
sg18
V-80.360430
p126
sg20
S'Monday, 07. May 2012 09:55PM'
p127
sg22
L26L
ssL27L
(dp128
g3
V1625
p129
sg5
VStaples
p130
sg7
V33913
p131
sg9
VNot sold at this location
p132
sg11
V\u000A(Located at A1-75 and Alico Rd.)\u000A10016 Gulf Center Drive\u000AFort Myers \u000AFL\u000A33913\u000A
p133
sg13
VFL
p134
sg15
I0
sg16
V26.491630
p135
sg18
V-81.791377
p136
sg20
S'Monday, 07. May 2012 09:55PM'
p137
sg22
L27L
ssL31L
(dp138
g3
V1063
p139
sg5
VStaples
p140
sg7
V32034
p141
sg9
VLow Stock
p142
sg11
V\u000A\u000A1836 South 8th Street\u000AFernandina Beach \u000AFL\u000A32034\u000A
p143
sg13
VFL
p144
sg15
I2
sg16
V30.642590
p145
sg18
V-81.458600
p146
sg20
S'Monday, 07. May 2012 09:55PM'
p147
sg22
L31L
ssL546L
(dp148
g3
V1668
p149
sg5
VStaples
p150
sg7
V33145
p151
sg9
VLow Stock
p152
sg11
V\u000A\u000A2120 SW 32nd Avenue\u000ACoral Gables \u000AFL\u000A33145\u000A
p153
sg13
VFL
p154
sg15
I2
sg16
V25.750520
p155
sg18
V-80.246060
p156
sg20
S'Monday, 07. May 2012 09:55PM'
p157
sg22
L546L
ssL8740L
(dp158
g74
V2208
p159
sg76
VPier Park
p160
sg78
V32413
p161
sg80
VAvailable
p162
sg82
I3
sg83
S'Thursday, 10. May 2012 09:59PM'
p163
sg85
L8740L
ssL8741L
(dp164
g74
V2209
p165
sg76
VSuncoast Pasco County
p166
sg78
V33556
p167
sg80
VAvailable
p168
sg82
I3
sg83
S'Thursday, 10. May 2012 09:59PM'
p169
sg85
L8741L
ssL8742L
(dp170
g74
V2210
p171
sg76
VBoynton Beach SE
p172
sg78
V33426
p173
sg80
VAvailable
p174
sg82
I3
sg83
S'Thursday, 10. May 2012 09:59PM'
p175
sg85
L8742L
ssL7719L
(dp176
g74
V897
p177
sg76
VOviedo
p178
sg78
V32765
p179
sg80
VAvailable
p180
sg82
I3
sg83
S'Thursday, 10. May 2012 09:59PM'
p181
sg85
L7719L
ssL7720L
(dp182
g74
V898
p183
sg76
VCasselberry
p184
sg78
V32707
p185
sg80
VAvailable
p186
sg82
I3
sg83
S'Thursday, 10. May 2012 09:59PM'
p187
sg85
L7720L
ssL7721L
(dp188
g74
V899
p189
sg76
VNaples
p190
sg78
V34109
p191
sg80
VAvailable
p192
sg82
I3
sg83
S'Thursday, 10. May 2012 09:59PM'
p193
sg85
L7721L
ssL8541L
(dp194
g74
V1973
p195
sg76
VTallahassee North
p196
sg78
V32309
p197
sg80
VAvailable
p198
sg82
I3
sg83
S'Thursday, 10. May 2012 09:59PM'
p199
sg85
L8541L
ssL560L
(dp200
g3
V1740
p201
sg5
VStaples
p202
sg7
V34787
p203
sg9
VIn Stock
p204
sg11
V\u000A\u000A3065 Daniels Road\u000AWinter Garden \u000AFL\u000A34787\u000A
p205
sg13
VFL
p206
sg15
I3
sg16
V28.522030
p207
sg18
V-81.589540
p208
sg20
S'Monday, 07. May 2012 09:55PM'
p209
sg22
L560L
ssL1073L
(dp210
g3
V1058
p211
sg5
VStaples
p212
sg7
V34606
p213
sg9
VLow Stock
p214
sg11
V\u000A\u000A4210 Commercial Way\u000ASpring Hill \u000AFL\u000A34606\u000A
p215
sg13
VFL
p216
sg15
I2
sg16
V28.493650
p217
sg18
V-82.597060
p218
sg20
S'Monday, 07. May 2012 09:55PM'
p219
sg22
L1073L
ssL562L
(dp220
g3
V1068
p221
sg5
VStaples
p222
sg7
V32137
p223
sg9
VIn Stock
p224
sg11
V\u000A\u000A9 Old Kings Road\u000APalm Coast \u000AFL\u000A32137\u000A
p225
sg13
VFL
p226
sg15
I3
sg16
V29.557200
p227
sg18
V-81.218100
p228
sg20
S'Monday, 07. May 2012 09:55PM'
p229
sg22
L562L
ssL51L
(dp230
g3
V1194
p231
sg5
VStaples
p232
sg7
V33426
p233
sg9
VNot sold at this location
p234
sg11
V\u000A\u000A1540 S. W. 8th Street\u000ABoynton Beach \u000AFL\u000A33426\u000A
p235
sg13
VFL
p236
sg15
I0
sg16
V26.515640
p237
sg18
V-80.076530
p238
sg20
S'Monday, 07. May 2012 09:55PM'
p239
sg22
L51L
ssL8286L
(dp240
g74
V1512
p241
sg76
VMiramar
p242
sg78
V33027
p243
sg80
VAvailable
p244
sg82
I3
sg83
S'Thursday, 10. May 2012 09:59PM'
p245
sg85
L8286L
ssL1078L
(dp246
g3
V1029
p247
sg5
VStaples
p248
sg7
V32818
p249
sg9
VIn Stock
p250
sg11
V\u000A\u000A867 Good Homes Rd\u000AOrlando \u000AFL\u000A32818\u000A
p251
sg13
VFL
p252
sg15
I3
sg16
V28.552300
p253
sg18
V-81.504510
p254
sg20
S'Monday, 07. May 2012 09:55PM'
p255
sg22
L1078L
ssL1081L
(dp256
g3
V1849
p257
sg5
VStaples
p258
sg7
V33139
p259
sg9
VIn Stock
p260
sg11
V\u000A\u000A1139 5th Street\u000AMiami Beach \u000AFL\u000A33139\u000A
p261
sg13
VFL
p262
sg15
I3
sg16
V25.774600
p263
sg18
V-80.139740
p264
sg20
S'Monday, 07. May 2012 09:55PM'
p265
sg22
L1081L
ssL7738L
(dp266
g74
V919
p267
sg76
VSpring Hill
p268
sg78
V34606
p269
sg80
VAvailable
p270
sg82
I3
sg83
S'Thursday, 10. May 2012 09:59PM'
p271
sg85
L7738L
ssL7739L
(dp272
g74
V920
p273
sg76
VPembroke Pines
p274
sg78
V33026
p275
sg80
VAvailable
p276
sg82
I3
sg83
S'Thursday, 10. May 2012 09:59PM'
p277
sg85
L7739L
ssL60L
(dp278
g3
V1892
p279
sg5
VStaples
p280
sg7
V33033
p281
sg9
VLow Stock
p282
sg11
V\u000A\u000A2631 NE 10th Ct\u000AHomestead \u000AFL\u000A33033\u000A
p283
sg13
VFL
p284
sg15
I2
sg16
V25.478210
p285
sg18
V-80.441000
p286
sg20
S'Monday, 07. May 2012 09:55PM'
p287
sg22
L60L
ssL8766L
(dp288
g74
V2235
p289
sg76
VBrandon South
p290
sg78
V33578
p291
sg80
VAvailable
p292
sg82
I3
sg83
S'Thursday, 10. May 2012 09:59PM'
p293
sg85
L8766L
ssL8255L
(dp294
g74
V1480
p295
sg76
VPlantation
p296
sg78
V33324
p297
sg80
VAvailable
p298
sg82
I3
sg83
S'Thursday, 10. May 2012 09:59PM'
p299
sg85
L8255L
ssL69L
(dp300
g3
V1056
p301
sg5
VStaples
p302
sg7
V32177
p303
sg9
VLow Stock
p304
sg11
V\u000A\u000A327 Highway 19 North\u000APalatka \u000AFL\u000A32177\u000A
p305
sg13
VFL
p306
sg15
I2
sg16
V29.651510
p307
sg18
V-81.672410
p308
sg20
S'Monday, 07. May 2012 09:55PM'
p309
sg22
L69L
ssL582L
(dp310
g3
V1053
p311
sg5
VStaples
p312
sg7
V32207
p313
sg9
VLow Stock
p314
sg11
V\u000A\u000A5800 Beach Blvd.\u000AJacksonville \u000AFL\u000A32207\u000A
p315
sg13
VFL
p316
sg15
I2
sg16
V30.293000
p317
sg18
V-81.604400
p318
sg20
S'Monday, 07. May 2012 09:55PM'
p319
sg22
L582L
ssL8778L
(dp320
g74
V2248
p321
sg76
VPort St Lucie
p322
sg78
V34987
p323
sg80
VLimited Availability
p324
sg82
I2
sg83
S'Thursday, 10. May 2012 09:59PM'
p325
sg85
L8778L
ssL8271L
(dp326
g74
V1497
p327
sg76
VFleming Island
p328
sg78
V32003
p329
sg80
VAvailable
p330
sg82
I3
sg83
S'Thursday, 10. May 2012 09:59PM'
p331
sg85
L8271L
ssL595L
(dp332
g3
V1899
p333
sg5
VStaples
p334
sg7
V33542
p335
sg9
VLow Stock
p336
sg11
V\u000A\u000A7910 Gall Blvd\u000AZephyrhills \u000AFL\u000A33542\u000A
p337
sg13
VFL
p338
sg15
I2
sg16
V28.272850
p339
sg18
V-82.187500
p340
sg20
S'Monday, 07. May 2012 09:55PM'
p341
sg22
L595L
ssL8277L
(dp342
g74
V1503
p343
sg76
VOrange Park
p344
sg78
V32073
p345
sg80
VAvailable
p346
sg82
I3
sg83
S'Thursday, 10. May 2012 09:59PM'
p347
sg85
L8277L
ssL598L
(dp348
g3
V1875
p349
sg5
VStaples
p350
sg7
V33025
p351
sg9
VNot sold at this location
p352
sg11
V\u000AWest Miramar at Flamingo Road\u000A12216 Miramar Parkway\u000AMiramar \u000AFL\u000A33025\u000A
p353
sg13
VFL
p354
sg15
I0
sg16
V25.978370
p355
sg18
V-80.309760
p356
sg20
S'Monday, 07. May 2012 09:55PM'
p357
sg22
L598L
ssL8793L
(dp358
g74
V2264
p359
sg76
VWinter Garden
p360
sg78
V34787
p361
sg80
VAvailable
p362
sg82
I3
sg83
S'Thursday, 10. May 2012 09:59PM'
p363
sg85
L8793L
ssL8794L
(dp364
g74
V2265
p365
sg76
VCoral Springs NW
p366
sg78
V33076
p367
sg80
VOut Of Stock
p368
sg82
I0
sg83
S'Thursday, 10. May 2012 09:59PM'
p369
sg85
L8794L
ssL93L
(dp370
g3
V1544
p371
sg5
VStaples
p372
sg7
V33761
p373
sg9
VNot sold at this location
p374
sg11
V\u000A\u000A30190 US Highway 19N\u000AClearwater \u000AFL\u000A33761\u000A
p375
sg13
VFL
p376
sg15
I0
sg16
V28.048100
p377
sg18
V-82.739270
p378
sg20
S'Monday, 07. May 2012 09:55PM'
p379
sg22
L93L
ssL8798L
(dp380
g74
V2269
p381
sg76
VTitusville
p382
sg78
V32780
p383
sg80
VAvailable
p384
sg82
I3
sg83
S'Thursday, 10. May 2012 09:59PM'
p385
sg85
L8798L
ssL7777L
(dp386
g74
V967
p387
sg76
VJacksonville Beach
p388
sg78
V32250
p389
sg80
VAvailable
p390
sg82
I3
sg83
S'Thursday, 10. May 2012 09:59PM'
p391
sg85
L7777L
ssL7778L
(dp392
g74
V968
p393
sg76
VBird Road
p394
sg78
V33155
p395
sg80
VAvailable
p396
sg82
I3
sg83
S'Thursday, 10. May 2012 09:59PM'
p397
sg85
L7778L
ssL7867L
(dp398
g74
V1074
p399
sg76
VAventura
p400
sg78
V33180
p401
sg80
VAvailable
p402
sg82
I3
sg83
S'Thursday, 10. May 2012 09:59PM'
p403
sg85
L7867L
ssL8292L
(dp404
g74
V1518
p405
sg76
VOrlando Millenia
p406
sg78
V32839
p407
sg80
VAvailable
p408
sg82
I3
sg83
S'Thursday, 10. May 2012 09:59PM'
p409
sg85
L8292L
ssL8293L
(dp410
g74
V1519
p411
sg76
VClermont
p412
sg78
V34711
p413
sg80
VAvailable
p414
sg82
I3
sg83
S'Thursday, 10. May 2012 09:59PM'
p415
sg85
L8293L
ssL7697L
(dp416
g74
V874
p417
sg76
VOrange City
p418
sg78
V32763
p419
sg80
VOut Of Stock
p420
sg82
I0
sg83
S'Thursday, 10. May 2012 09:59PM'
p421
sg85
L7697L
ssL616L
(dp422
g3
V1246
p423
sg5
VStaples
p424
sg7
V34209
p425
sg9
VNot sold at this location
p426
sg11
V\u000A\u000A7210 Manatee Ave.\u000ABradenton \u000AFL\u000A34209\u000A
p427
sg13
VFL
p428
sg15
I0
sg16
V27.496590
p429
sg18
V-82.635160
p430
sg20
S'Monday, 07. May 2012 09:55PM'
p431
sg22
L616L
ssL1132L
(dp432
g3
V1726
p433
sg5
VStaples
p434
sg7
V33064
p435
sg9
VNot sold at this location
p436
sg11
V\u000A\u000A3742 North Federal Highway\u000ALighthouse Point \u000AFL\u000A33064\u000A
p437
sg13
VFL
p438
sg15
I0
sg16
V26.277530
p439
sg18
V-80.097570
p440
sg20
S'Monday, 07. May 2012 09:55PM'
p441
sg22
L1132L
ssL8815L
(dp442
g74
V2289
p443
sg76
VTampa West
p444
sg78
V33635
p445
sg80
VAvailable
p446
sg82
I3
sg83
S'Thursday, 10. May 2012 09:59PM'
p447
sg85
L8815L
ssL8808L
(dp448
g74
V2279
p449
sg76
VPace
p450
sg78
V32571
p451
sg80
VAvailable
p452
sg82
I3
sg83
S'Thursday, 10. May 2012 09:59PM'
p453
sg85
L8808L
ssL631L
(dp454
g3
V1616
p455
sg5
VStaples
p456
sg7
V32246
p457
sg9
VNot sold at this location
p458
sg11
V\u000A\u000A10261 River Marsh Drive\u000AJacksonville \u000AFL\u000A32246\u000A
p459
sg13
VFL
p460
sg15
I0
sg16
V30.253950
p461
sg18
V-81.523050
p462
sg20
S'Monday, 07. May 2012 09:55PM'
p463
sg22
L631L
ssL632L
(dp464
g3
V1081
p465
sg5
VStaples
p466
sg7
V32780
p467
sg9
VOut of Stock
p468
sg11
V\u000A\u000A3155 Columbia Blvd.\u000ATitusville \u000AFL\u000A32780\u000A
p469
sg13
VFL
p470
sg15
I-1
sg16
V28.553000
p471
sg18
V-80.845800
p472
sg20
S'Monday, 07. May 2012 09:55PM'
p473
sg22
L632L
ssL7700L
(dp474
g74
V877
p475
sg76
VHollywood
p476
sg78
V33021
p477
sg80
VAvailable
p478
sg82
I3
sg83
S'Thursday, 10. May 2012 09:59PM'
p479
sg85
L7700L
ssL635L
(dp480
g3
V1656
p481
sg5
VStaples
p482
sg7
V33165
p483
sg9
VNot sold at this location
p484
sg11
V\u000A\u000A8859 S.W. 24th St.\u000AMiami \u000AFL\u000A33165\u000A
p485
sg13
VFL
p486
sg15
I0
sg16
V25.747510
p487
sg18
V-80.339050
p488
sg20
S'Monday, 07. May 2012 09:55PM'
p489
sg22
L635L
ssL636L
(dp490
g3
V1207
p491
sg5
VStaples
p492
sg7
V34109
p493
sg9
VNot sold at this location
p494
sg11
V\u000A\u000A6305 Naples Blvd.\u000ANaples \u000AFL\u000A34109\u000A
p495
sg13
VFL
p496
sg15
I0
sg16
V26.219610
p497
sg18
V-81.772590
p498
sg20
S'Monday, 07. May 2012 09:55PM'
p499
sg22
L636L
ssL7531L
(dp500
g74
V649
p501
sg76
VEast Colonial
p502
sg78
V32803
p503
sg80
VAvailable
p504
sg82
I3
sg83
S'Thursday, 10. May 2012 09:59PM'
p505
sg85
L7531L
ssL133L
(dp506
g3
V1624
p507
sg5
VStaples
p508
sg7
V34110
p509
sg9
VNot sold at this location
p510
sg11
V\u000A\u000A13585 N Tamiami Trail Ste 12\u000ANaples \u000AFL\u000A34110\u000A
p511
sg13
VFL
p512
sg15
I0
sg16
V26.294880
p513
sg18
V-81.804710
p514
sg20
S'Monday, 07. May 2012 09:55PM'
p515
sg22
L133L
ssL8838L
(dp516
g74
V2316
p517
sg76
VCape Coral North
p518
sg78
V33909
p519
sg80
VAvailable
p520
sg82
I3
sg83
S'Thursday, 10. May 2012 09:59PM'
p521
sg85
L8838L
ssL8839L
(dp522
g74
V2317
p523
sg76
VCoconut Point
p524
sg78
V33928
p525
sg80
VAvailable
p526
sg82
I3
sg83
S'Thursday, 10. May 2012 09:59PM'
p527
sg85
L8839L
ssL7817L
(dp528
g83
S'Thursday, 10. May 2012 09:59PM'
p529
sg82
Nsg85
L7817L
sg76
VPark & Tyrone
p530
sg78
V33709
p531
ssL8332L
(dp532
g74
V1760
p533
sg76
VWaterford Lakes
p534
sg78
V32828
p535
sg80
VAvailable
p536
sg82
I3
sg83
S'Thursday, 10. May 2012 09:59PM'
p537
sg85
L8332L
ssL142L
(dp538
g3
V1680
p539
sg5
VStaples
p540
sg7
V33647
p541
sg9
VLow Stock
p542
sg11
V\u000A\u000A6260 Commerce Palms\u000ANew Tampa \u000AFL\u000A33647\u000A
p543
sg13
VFL
p544
sg15
I2
sg16
V28.119890
p545
sg18
V-82.375120
p546
sg20
S'Monday, 07. May 2012 09:55PM'
p547
sg22
L142L
ssL655L
(dp548
g3
V1209
p549
sg5
VStaples
p550
sg7
V33907
p551
sg9
VLow Stock
p552
sg11
V\u000ACypress Lake Shopping Center\u000A7191-3 Cypress Lake Drive\u000AFt. Myers \u000AFL\u000A33907\u000A
p553
sg13
VFL
p554
sg15
I2
sg16
V26.544070
p555
sg18
V-81.873700
p556
sg20
S'Monday, 07. May 2012 09:55PM'
p557
sg22
L655L
ssL144L
(dp558
g3
V1728
p559
sg5
VStaples
p560
sg7
V33073
p561
sg9
VNot sold at this location
p562
sg11
V\u000A\u000A4301 W. Hillsboro Boulevard\u000ACoconut Creek \u000AFL\u000A33073\u000A
p563
sg13
VFL
p564
sg15
I0
sg16
V26.317660
p565
sg18
V-80.183860
p566
sg20
S'Monday, 07. May 2012 09:55PM'
p567
sg22
L144L
ssL147L
(dp568
g3
V1071
p569
sg5
VStaples
p570
sg7
V32086
p571
sg9
VLow Stock
p572
sg11
V\u000A\u000A1940 US Highway 1 South\u000ASt. Augustine \u000AFL\u000A32086\u000A
p573
sg13
VFL
p574
sg15
I2
sg16
V29.865800
p575
sg18
V-81.323400
p576
sg20
S'Monday, 07. May 2012 09:55PM'
p577
sg22
L147L
ssL150L
(dp578
g3
V1884
p579
sg5
VStaples
p580
sg7
V32223
p581
sg9
VNot sold at this location
p582
sg11
V\u000A\u000A11111 San Jose Blvd.  Suite 56\u000AJacksonville \u000AFL\u000A32223\u000A
p583
sg13
VFL
p584
sg15
I0
sg16
V30.173420
p585
sg18
V-81.627900
p586
sg20
S'Monday, 07. May 2012 09:55PM'
p587
sg22
L150L
ssL7832L
(dp588
g74
V1038
p589
sg76
VNorth Miami
p590
sg78
V33181
p591
sg80
VAvailable
p592
sg82
I3
sg83
S'Thursday, 10. May 2012 09:59PM'
p593
sg85
L7832L
ssL665L
(dp594
g3
V1778
p595
sg5
VStaples
p596
sg7
V33157
p597
sg9
VNot sold at this location
p598
sg11
V\u000A\u000A18591 South Dixie Highway\u000ACutler Bay \u000AFL\u000A33157\u000A
p599
sg13
VFL
p600
sg15
I0
sg16
V25.596590
p601
sg18
V-80.354750
p602
sg20
S'Monday, 07. May 2012 09:55PM'
p603
sg22
L665L
ssL154L
(dp604
g3
V1775
p605
sg5
VStaples
p606
sg7
V34113
p607
sg9
VNot sold at this location
p608
sg11
V\u000A\u000A12632 East Tamiami Trail\u000ANaples \u000AFL\u000A34113\u000A
p609
sg13
VFL
p610
sg15
I0
sg16
V26.063210
p611
sg18
V-81.700110
p612
sg20
S'Monday, 07. May 2012 09:55PM'
p613
sg22
L154L
ssL667L
(dp614
g3
V1032
p615
sg5
VStaples
p616
sg7
V34741
p617
sg9
VLow Stock
p618
sg11
V\u000A\u000A101 West Vine St.\u000AKissimmee \u000AFL\u000A34741\u000A
p619
sg13
VFL
p620
sg15
I2
sg16
V28.305000
p621
sg18
V-81.404710
p622
sg20
S'Monday, 07. May 2012 09:55PM'
p623
sg22
L667L
ssL8350L
(dp624
g74
V1778
p625
sg76
VLauderhill
p626
sg78
V33351
p627
sg80
VAvailable
p628
sg82
I3
sg83
S'Thursday, 10. May 2012 09:59PM'
p629
sg85
L8350L
ssL164L
(dp630
g3
V1057
p631
sg5
VStaples
p632
sg7
V32905
p633
sg9
VIn Stock
p634
sg11
V\u000A\u000A1595 Palm Bay Rd.\u000APalm Bay \u000AFL\u000A32905\u000A
p635
sg13
VFL
p636
sg15
I3
sg16
V28.035420
p637
sg18
V-80.622290
p638
sg20
S'Monday, 07. May 2012 09:55PM'
p639
sg22
L164L
ssL7845L
(dp640
g74
V1051
p641
sg76
VGandy
p642
sg78
V33611
p643
sg80
VAvailable
p644
sg82
I3
sg83
S'Thursday, 10. May 2012 09:59PM'
p645
sg85
L7845L
ssL7847L
(dp646
g74
V1053
p647
sg76
VMerritt Island
p648
sg78
V32953
p649
sg80
VAvailable
p650
sg82
I3
sg83
S'Thursday, 10. May 2012 09:59PM'
p651
sg85
L7847L
ssL8361L
(dp652
g74
V1790
p653
sg76
VHunters Creek
p654
sg78
V32837
p655
sg80
VAvailable
p656
sg82
I3
sg83
S'Thursday, 10. May 2012 09:59PM'
p657
sg85
L8361L
ssL172L
(dp658
g3
V1862
p659
sg5
VStaples
p660
sg7
V33411
p661
sg9
VNot sold at this location
p662
sg11
V\u000A(Wellington)\u000A10465 Southern Blvd\u000ARoyal Palm Beach \u000AFL\u000A33411\u000A
p663
sg13
VFL
p664
sg15
I0
sg16
V26.681230
p665
sg18
V-80.208570
p666
sg20
S'Monday, 07. May 2012 09:55PM'
p667
sg22
L172L
ssL8366L
(dp668
g74
V1795
p669
sg76
VPort Orange
p670
sg78
V32127
p671
sg80
VLimited Availability
p672
sg82
I2
sg83
S'Thursday, 10. May 2012 09:59PM'
p673
sg85
L8366L
ssL8882L
(dp674
g74
V2363
p675
sg76
VFort Myers SW
p676
sg78
V33908
p677
sg80
VAvailable
p678
sg82
I3
sg83
S'Thursday, 10. May 2012 09:59PM'
p679
sg85
L8882L
ssL8883L
(dp680
g74
V2364
p681
sg76
VPalm Coast
p682
sg78
V32164
p683
sg80
VOut Of Stock
p684
sg82
I0
sg83
S'Thursday, 10. May 2012 09:59PM'
p685
sg85
L8883L
ssL8885L
(dp686
g74
V2366
p687
sg76
VNE Polk County
p688
sg78
V33837
p689
sg80
VAvailable
p690
sg82
I3
sg83
S'Thursday, 10. May 2012 09:59PM'
p691
sg85
L8885L
ssL1207L
(dp692
g3
V0205
p693
sg5
VStaples
p694
sg7
V33809
p695
sg9
VLow Stock
p696
sg11
V\u000AShoppes at Lakeland\u000A4011 US Highway 98 North\u000ALakeland \u000AFL\u000A33809\u000A
p697
sg13
VFL
p698
sg15
I2
sg16
V28.093524
p699
sg18
V-81.973717
p700
sg20
S'Monday, 07. May 2012 09:55PM'
p701
sg22
L1207L
ssL8888L
(dp702
g74
V2369
p703
sg76
VFort Myers North
p704
sg78
V33905
p705
sg80
VAvailable
p706
sg82
I3
sg83
S'Thursday, 10. May 2012 09:59PM'
p707
sg85
L8888L
ssL8889L
(dp708
g74
V2370
p709
sg76
VOrlando SW
p710
sg78
V34747
p711
sg80
VAvailable
p712
sg82
I3
sg83
S'Thursday, 10. May 2012 09:59PM'
p713
sg85
L8889L
ssL8890L
(dp714
S'num'
p715
V2371
p716
sS'name'
p717
VAnchorage NE
p718
sS'availbility'
p719
VAvailable
p720
sS'last_update'
p721
S'Thursday, 10. May 2012 03:08PM'
p722
sS'availcode'
p723
I3
sS'id'
p724
L8890L
ssL8891L
(dp725
g715
V2372
p726
sg717
VAnchorage South
p727
sg719
VNot Available
p728
sg721
S'Thursday, 10. May 2012 03:08PM'
p729
sg723
I0
sg724
L8891L
ssL7868L
(dp730
g74
V1075
p731
sg76
VCutler Ridge
p732
sg78
V33189
p733
sg80
VAvailable
p734
sg82
I3
sg83
S'Thursday, 10. May 2012 09:59PM'
p735
sg85
L7868L
ssL8895L
(dp736
g74
V2376
p737
sg76
VOrlando - Sodo
p738
sg78
V32806
p739
sg80
VAvailable
p740
sg82
I3
sg83
S'Thursday, 10. May 2012 09:59PM'
p741
sg85
L8895L
ssL8599L
(dp742
g74
V2058
p743
sg76
VLady Lake
p744
sg78
V32159
p745
sg80
VAvailable
p746
sg82
I3
sg83
S'Thursday, 10. May 2012 09:59PM'
p747
sg85
L8599L
ssL8390L
(dp748
g74
V1820
p749
sg76
VClearwater
p750
sg78
V33759
p751
sg80
VAvailable
p752
sg82
I3
sg83
S'Thursday, 10. May 2012 09:59PM'
p753
sg85
L8390L
ssL289L
(dp754
g3
V1876
p755
sg5
VStaples
p756
sg7
V32504
p757
sg9
VIn Stock
p758
sg11
V\u000A\u000A1123 Airport Blvd.\u000APensacola \u000AFL\u000A32504\u000A
p759
sg13
VFL
p760
sg15
I3
sg16
V30.481180
p761
sg18
V-87.221650
p762
sg20
S'Monday, 07. May 2012 09:55PM'
p763
sg22
L289L
ssL210L
(dp764
g3
V0212
p765
sg5
VStaples
p766
sg7
V33764
p767
sg9
VNot sold at this location
p768
sg11
V\u000A\u000A10900 U.S. Hwy 19N\u000AClearwater \u000AFL\u000A33764\u000A
p769
sg13
VFL
p770
sg15
I0
sg16
V27.871500
p771
sg18
V-82.707200
p772
sg20
S'Monday, 07. May 2012 09:55PM'
p773
sg22
L210L
ssL7545L
(dp774
g74
V665
p775
sg76
VSarasota
p776
sg78
V34238
p777
sg80
VAvailable
p778
sg82
I3
sg83
S'Thursday, 10. May 2012 09:59PM'
p779
sg85
L7545L
ssL728L
(dp780
g3
V1901
p781
sg5
VStaples
p782
sg7
V32822
p783
sg9
VNot sold at this location
p784
sg11
V\u000AVista Palms\u000A7157 Narcoossee Road\u000AOrlando \u000AFL\u000A32822\u000A
p785
sg13
VFL
p786
sg15
I0
sg16
V28.464870
p787
sg18
V-81.273630
p788
sg20
S'Monday, 07. May 2012 09:55PM'
p789
sg22
L728L
ssL217L
(dp790
g3
V0201
p791
sg5
VStaples
p792
sg7
V33607
p793
sg9
VIn Stock
p794
sg11
V\u000AHorizon Park Plaza\u000A3702 West  Spruce St.\u000ATampa \u000AFL\u000A33607\u000A
p795
sg13
VFL
p796
sg15
I3
sg16
V27.958680
p797
sg18
V-82.507450
p798
sg20
S'Monday, 07. May 2012 09:55PM'
p799
sg22
L217L
ssL1243L
(dp800
g3
V1747
p801
sg5
VStaples
p802
sg7
V34119
p803
sg9
VNot sold at this location
p804
sg11
V\u000A\u000A2415 Tarpon Bay Blvd No. 4\u000ANaples \u000AFL\u000A34119\u000A
p805
sg13
VFL
p806
sg15
I0
sg16
V26.272130
p807
sg18
V-81.738420
p808
sg20
S'Monday, 07. May 2012 09:55PM'
p809
sg22
L1243L
ssL1244L
(dp810
g3
V1066
p811
sg5
VStaples
p812
sg7
V32065
p813
sg9
VNot sold at this location
p814
sg11
V\u000A\u000A700-16 South Blanding Blvd.\u000AOrange Park \u000AFL\u000A32065\u000A
p815
sg13
VFL
p816
sg15
I0
sg16
V30.146800
p817
sg18
V-81.759600
p818
sg20
S'Monday, 07. May 2012 09:55PM'
p819
sg22
L1244L
ssL7901L
(dp820
g74
V1110
p821
sg76
VGreenacres
p822
sg78
V33463
p823
sg80
VAvailable
p824
sg82
I3
sg83
S'Thursday, 10. May 2012 09:59PM'
p825
sg85
L7901L
ssL8229L
(dp826
g74
V1454
p827
sg76
VCape Coral
p828
sg78
V33914
p829
sg80
VAvailable
p830
sg82
I3
sg83
S'Thursday, 10. May 2012 09:59PM'
p831
sg85
L8229L
ssL736L
(dp832
g3
V1206
p833
sg5
VStaples
p834
sg7
V33990
p835
sg9
VNot sold at this location
p836
sg11
V\u000A\u000A1631 Del Prado Blvd.\u000ACape Coral \u000AFL\u000A33990\u000A
p837
sg13
VFL
p838
sg15
I0
sg16
V26.621270
p839
sg18
V-81.940050
p840
sg20
S'Monday, 07. May 2012 09:55PM'
p841
sg22
L736L
ssL228L
(dp842
g3
V1623
p843
sg5
VStaples
p844
sg7
V32159
p845
sg9
VLow Stock
p846
sg11
V\u000A\u000A720 US Hwy. 441\u000ALady Lake (The Villages) \u000AFL\u000A32159\u000A
p847
sg13
VFL
p848
sg15
I2
sg16
V28.934550
p849
sg18
V-81.938970
p850
sg20
S'Monday, 07. May 2012 09:55PM'
p851
sg22
L228L
ssL229L
(dp852
g3
V1672
p853
sg5
VStaples
p854
sg7
V33156
p855
sg9
VNot sold at this location
p856
sg11
V\u000A\u000A9801 South Dixie Hwy (US 1)\u000APinecrest \u000AFL\u000A33156\u000A
p857
sg13
VFL
p858
sg15
I0
sg16
V25.679800
p859
sg18
V-80.317530
p860
sg20
S'Monday, 07. May 2012 09:55PM'
p861
sg22
L229L
ssL1255L
(dp862
g3
V1072
p863
sg5
VStaples
p864
sg7
V32303
p865
sg9
VLow Stock
p866
sg11
V\u000A\u000A2241 North Monroe Street\u000ATallahassee \u000AFL\u000A32303\u000A
p867
sg13
VFL
p868
sg15
I2
sg16
V30.470700
p869
sg18
V-84.289700
p870
sg20
S'Monday, 07. May 2012 09:55PM'
p871
sg22
L1255L
ssL236L
(dp872
g3
V1729
p873
sg5
VStaples
p874
sg7
V33062
p875
sg9
VNot sold at this location
p876
sg11
V\u000AThe Marketplace at Pompano\u000AS. 1245 Federal Highway\u000APompano \u000AFL\u000A33062\u000A
p877
sg13
VFL
p878
sg15
I0
sg16
V26.214810
p879
sg18
V-80.105730
p880
sg20
S'Monday, 07. May 2012 09:55PM'
p881
sg22
L236L
ssL8429L
(dp882
g74
V1859
p883
sg76
VLakeland North
p884
sg78
V33809
p885
sg80
VAvailable
p886
sg82
I3
sg83
S'Thursday, 10. May 2012 09:59PM'
p887
sg85
L8429L
ssL238L
(dp888
g3
V1752
p889
sg5
VStaples
p890
sg7
V33334
p891
sg9
VNot sold at this location
p892
sg11
V\u000A\u000A1707 E Commercial Blvd\u000AFt Lauderdale \u000AFL\u000A33334\u000A
p893
sg13
VFL
p894
sg15
I0
sg16
V26.189040
p895
sg18
V-80.124440
p896
sg20
S'Monday, 07. May 2012 09:55PM'
p897
sg22
L238L
ssL7919L
(dp898
g74
V1131
p899
sg76
VSt Petersburg Gateway
p900
sg78
V33702
p901
sg80
VAvailable
p902
sg82
I3
sg83
S'Thursday, 10. May 2012 09:59PM'
p903
sg85
L7919L
ssL752L
(dp904
g3
V1679
p905
sg5
VStaples
p906
sg7
V34471
p907
sg9
VIn Stock
p908
sg11
V\u000A\u000A2497 South West 27th Avenue\u000AOcala \u000AFL\u000A34471\u000A
p909
sg13
VFL
p910
sg15
I3
sg16
V29.163050
p911
sg18
V-82.168590
p912
sg20
S'Monday, 07. May 2012 09:55PM'
p913
sg22
L752L
ssL241L
(dp914
g3
V1683
p915
sg5
VStaples
p916
sg7
V33409
p917
sg9
VLow Stock
p918
sg11
V\u000A\u000A2029 Okeechobee Blvd.\u000AWest Palm Beach \u000AFL\u000A33409\u000A
p919
sg13
VFL
p920
sg15
I2
sg16
V26.706560
p921
sg18
V-80.081400
p922
sg20
S'Monday, 07. May 2012 09:55PM'
p923
sg22
L241L
ssL244L
(dp924
g3
V0945
p925
sg5
VStaples
p926
sg7
V33618
p927
sg9
VLow Stock
p928
sg11
V\u000A\u000A15110 N. Dale Mabry\u000ATampa \u000AFL\u000A33618\u000A
p929
sg13
VFL
p930
sg15
I2
sg16
V28.085810
p931
sg18
V-82.505480
p932
sg20
S'Monday, 07. May 2012 09:55PM'
p933
sg22
L244L
ssL8577L
(dp934
g74
V2032
p935
sg76
VOrlando East
p936
sg78
V32792
p937
sg80
VAvailable
p938
sg82
I3
sg83
S'Thursday, 10. May 2012 09:59PM'
p939
sg85
L8577L
ssL1274L
(dp940
g3
V1827
p941
sg5
VStaples
p942
sg7
V34769
p943
sg9
VOut of Stock
p944
sg11
V\u000AThe Oaks Shopping Center\u000A4058 13th Street\u000ASt. Cloud \u000AFL\u000A34769\u000A
p945
sg13
VFL
p946
sg15
I-1
sg16
V28.251380
p947
sg18
V-81.313180
p948
sg20
S'Monday, 07. May 2012 09:55PM'
p949
sg22
L1274L
ssL8956L
(dp950
g74
V2445
p951
sg76
VPensacola West
p952
sg78
V32506
p953
sg80
VAvailable
p954
sg82
I3
sg83
S'Thursday, 10. May 2012 09:59PM'
p955
sg85
L8956L
ssL772L
(dp956
g3
V0421
p957
sg5
VStaples
p958
sg7
V33948
p959
sg9
VLow Stock
p960
sg11
V\u000A\u000A1825 Tamiami Trail\u000APort Charlotte \u000AFL\u000A33948\u000A
p961
sg13
VFL
p962
sg15
I2
sg16
V27.005200
p963
sg18
V-82.132400
p964
sg20
S'Monday, 07. May 2012 09:55PM'
p965
sg22
L772L
ssL1286L
(dp966
g3
V1861
p967
sg5
VStaples
p968
sg7
V33905
p969
sg9
VNot sold at this location
p970
sg11
V\u000AColonial Drive and I75\u000A3236 Forum Blvd\u000AFort Myers \u000AFL\u000A33905\u000A
p971
sg13
VFL
p972
sg15
I0
sg16
V26.615420
p973
sg18
V-81.799400
p974
sg20
S'Monday, 07. May 2012 09:55PM'
p975
sg22
L1286L
ssL263L
(dp976
g3
V1843
p977
sg5
VStaples
p978
sg7
V33837
p979
sg9
VIn Stock
p980
sg11
V\u000A\u000A3500 Posner Blvd.\u000ADavenport \u000AFL\u000A33837\u000A
p981
sg13
VFL
p982
sg15
I3
sg16
V28.232090
p983
sg18
V-81.649360
p984
sg20
S'Monday, 07. May 2012 09:55PM'
p985
sg22
L263L
ssL7639L
(dp986
g74
V813
p987
sg76
VVenice
p988
sg78
V34293
p989
sg80
VAvailable
p990
sg82
I3
sg83
S'Thursday, 10. May 2012 09:59PM'
p991
sg85
L7639L
ssL7949L
(dp992
g74
V1163
p993
sg76
VFt Lauderdale
p994
sg78
V33306
p995
sg80
VAvailable
p996
sg82
I3
sg83
S'Thursday, 10. May 2012 09:59PM'
p997
sg85
L7949L
ssL786L
(dp998
g3
V1820
p999
sg5
VStaples
p1000
sg7
V32712
p1001
sg9
VNot sold at this location
p1002
sg11
V\u000AApopka Commons\u000A1626 West Orange Blossom Trail\u000AApopka \u000AFL\u000A32712\u000A
p1003
sg13
VFL
p1004
sg15
I0
sg16
V28.686850
p1005
sg18
V-81.540820
p1006
sg20
S'Monday, 07. May 2012 09:55PM'
p1007
sg22
L786L
ssL8990L
(dp1008
g74
V2489
p1009
sg76
VSpring Hill East
p1010
sg78
V34604
p1011
sg80
VAvailable
p1012
sg82
I3
sg83
S'Thursday, 10. May 2012 09:59PM'
p1013
sg85
L8990L
ssL287L
(dp1014
g3
V0415
p1015
sg5
VStaples
p1016
sg7
V33477
p1017
sg9
VLow Stock
p1018
sg11
V\u000AThe Shoppes At Jupiter\u000A201 North US 1\u000AJupiter \u000AFL\u000A33477\u000A
p1019
sg13
VFL
p1020
sg15
I2
sg16
V26.936300
p1021
sg18
V-80.081400
p1022
sg20
S'Monday, 07. May 2012 09:55PM'
p1023
sg22
L287L
ssL48L
(dp1024
g3
V1038
p1025
sg5
VStaples
p1026
sg7
V32746
p1027
sg9
VIn Stock
p1028
sg11
V\u000A\u000A4215 Lake Mary Blvd.\u000ALake Mary \u000AFL\u000A32746\u000A
p1029
sg13
VFL
p1030
sg15
I3
sg16
V28.755200
p1031
sg18
V-81.347700
p1032
sg20
S'Monday, 07. May 2012 09:55PM'
p1033
sg22
L48L
ssL7844L
(dp1034
g74
V1050
p1035
sg76
VVero Beach
p1036
sg78
V32966
p1037
sg80
VAvailable
p1038
sg82
I3
sg83
S'Thursday, 10. May 2012 09:59PM'
p1039
sg85
L7844L
ssL8486L
(dp1040
g74
V1918
p1041
sg76
VKissimmee West
p1042
sg78
V34746
p1043
sg80
VAvailable
p1044
sg82
I3
sg83
S'Thursday, 10. May 2012 09:59PM'
p1045
sg85
L8486L
ssL8489L
(dp1046
g74
V1921
p1047
sg76
VJacksonville East
p1048
sg78
V32224
p1049
sg80
VAvailable
p1050
sg82
I3
sg83
S'Thursday, 10. May 2012 09:59PM'
p1051
sg85
L8489L
ssL8057L
(dp1052
g74
V1273
p1053
sg76
VPensacola NE
p1054
sg78
V32514
p1055
sg80
VAvailable
p1056
sg82
I3
sg83
S'Thursday, 10. May 2012 09:59PM'
p1057
sg85
L8057L
ssL1331L
(dp1058
g3
V0202
p1059
sg5
VStaples
p1060
sg7
V33713
p1061
sg9
VLow Stock
p1062
sg11
V\u000A\u000A2004 34th Street North\u000ASt. Petersburg \u000AFL\u000A33713\u000A
p1063
sg13
VFL
p1064
sg15
I2
sg16
V27.791540
p1065
sg18
V-82.680220
p1066
sg20
S'Monday, 07. May 2012 09:55PM'
p1067
sg22
L1331L
ssL8764L
(dp1068
g74
V2233
p1069
sg76
VJacksonville West
p1070
sg78
V32222
p1071
sg80
VAvailable
p1072
sg82
I3
sg83
S'Thursday, 10. May 2012 09:59PM'
p1073
sg85
L8764L
ssL8502L
(dp1074
g74
V1934
p1075
sg76
VViera
p1076
sg78
V32940
p1077
sg80
VAvailable
p1078
sg82
I3
sg83
S'Thursday, 10. May 2012 09:59PM'
p1079
sg85
L8502L
ssL8503L
(dp1080
g74
V1935
p1081
sg76
VRoyal Palm Beach
p1082
sg78
V33411
p1083
sg80
VAvailable
p1084
sg82
I3
sg83
S'Thursday, 10. May 2012 09:59PM'
p1085
sg85
L8503L
ssL827L
(dp1086
g3
V1654
p1087
sg5
VStaples
p1088
sg7
V33012
p1089
sg9
VIn Stock
p1090
sg11
V\u000A\u000A1700 West 49th Street\u000AHialeah \u000AFL\u000A33012\u000A
p1091
sg13
VFL
p1092
sg15
I3
sg16
V25.866350
p1093
sg18
V-80.315960
p1094
sg20
S'Monday, 07. May 2012 09:55PM'
p1095
sg22
L827L
ssL7563L
(dp1096
g74
V686
p1097
sg76
VPensacola
p1098
sg78
V32503
p1099
sg80
VAvailable
p1100
sg82
I3
sg83
S'Thursday, 10. May 2012 09:59PM'
p1101
sg85
L7563L
ssL8509L
(dp1102
g74
V1941
p1103
sg76
VLake Park/Palm Beach Gardens
p1104
sg78
V33403
p1105
sg80
VAvailable
p1106
sg82
I3
sg83
S'Thursday, 10. May 2012 09:59PM'
p1107
sg85
L8509L
ssL7529L
(dp1108
g74
V645
p1109
sg76
VRegency
p1110
sg78
V32225
p1111
sg80
VAvailable
p1112
sg82
I3
sg83
S'Thursday, 10. May 2012 09:59PM'
p1113
sg85
L7529L
ssL320L
(dp1114
g3
V0649
p1115
sg5
VStaples
p1116
sg7
V34293
p1117
sg9
VLow Stock
p1118
sg11
V\u000A\u000A4291 S. Tamiami Trail\u000AVenice \u000AFL\u000A34293\u000A
p1119
sg13
VFL
p1120
sg15
I2
sg16
V27.050360
p1121
sg18
V-82.390010
p1122
sg20
S'Monday, 07. May 2012 09:55PM'
p1123
sg22
L320L
ssL9025L
(dp1124
g74
V2547
p1125
sg76
VWest Melbourne
p1126
sg78
V32904
p1127
sg80
VAvailable
p1128
sg82
I3
sg83
S'Thursday, 10. May 2012 09:59PM'
p1129
sg85
L9025L
ssL834L
(dp1130
g3
V0624
p1131
sg5
VStaples
p1132
sg7
V34952
p1133
sg9
VOut of Stock
p1134
sg11
V\u000A\u000A10139 SE US Hwy 1\u000APort St. Lucie \u000AFL\u000A34952\u000A
p1135
sg13
VFL
p1136
sg15
I-1
sg16
V27.271600
p1137
sg18
V-80.290100
p1138
sg20
S'Monday, 07. May 2012 09:55PM'
p1139
sg22
L834L
ssL1347L
(dp1140
g3
V1060
p1141
sg5
VStaples
p1142
sg7
V32301
p1143
sg9
VNot sold at this location
p1144
sg11
V\u000A\u000A2345 Apalachee Parkway\u000ATallahassee \u000AFL\u000A32301\u000A
p1145
sg13
VFL
p1146
sg15
I0
sg16
V30.429300
p1147
sg18
V-84.242400
p1148
sg20
S'Monday, 07. May 2012 09:55PM'
p1149
sg22
L1347L
ssL838L
(dp1150
g3
V0211
p1151
sg5
VStaples
p1152
sg7
V34668
p1153
sg9
VNot sold at this location
p1154
sg11
V\u000AThe Piers Shop Ctr\u000A6239 Tacoma Drive\u000APort Richey \u000AFL\u000A34668\u000A
p1155
sg13
VFL
p1156
sg15
I0
sg16
V28.296240
p1157
sg18
V-82.709510
p1158
sg20
S'Monday, 07. May 2012 09:55PM'
p1159
sg22
L838L
ssL1355L
(dp1160
g3
V1004
p1161
sg5
VStaples
p1162
sg7
V32819
p1163
sg9
VNot sold at this location
p1164
sg11
V\u000ASand Lake\u000A8421 S John Young Pkwy\u000AOrlando \u000AFL\u000A32819\u000A
p1165
sg13
VFL
p1166
sg15
I0
sg16
V28.449400
p1167
sg18
V-81.424400
p1168
sg20
S'Monday, 07. May 2012 09:55PM'
p1169
sg22
L1355L
ssL333L
(dp1170
g3
V1622
p1171
sg5
VStaples
p1172
sg7
V34711
p1173
sg9
VOut of Stock
p1174
sg11
V\u000A\u000A1600 South Grand Highway\u000AClermont \u000AFL\u000A34711\u000A
p1175
sg13
VFL
p1176
sg15
I-1
sg16
V28.546510
p1177
sg18
V-81.741270
p1178
sg20
S'Monday, 07. May 2012 09:55PM'
p1179
sg22
L333L
ssL8077L
(dp1180
g74
V1294
p1181
sg76
VSt Augustine
p1182
sg78
V32084
p1183
sg80
VAvailable
p1184
sg82
I3
sg83
S'Thursday, 10. May 2012 09:59PM'
p1185
sg85
L8077L
ssL336L
(dp1186
g3
V1735
p1187
sg5
VStaples
p1188
sg7
V33144
p1189
sg9
VNot sold at this location
p1190
sg11
V\u000A(67th and 8th)\u000A1044 SW 67th Ave\u000AMIAMI \u000AFL\u000A33144\u000A
p1191
sg13
VFL
p1192
sg15
I0
sg16
V25.763440
p1193
sg18
V-80.305300
p1194
sg20
S'Monday, 07. May 2012 09:55PM'
p1195
sg22
L336L
ssL338L
(dp1196
g3
V1673
p1197
sg5
VStaples
p1198
sg7
V33176
p1199
sg9
VNot sold at this location
p1200
sg11
V\u000AKendall Mall\u000A8811 SW 107th Avenue\u000AMiami \u000AFL\u000A33176\u000A
p1201
sg13
VFL
p1202
sg15
I0
sg16
V25.687940
p1203
sg18
V-80.368630
p1204
sg20
S'Monday, 07. May 2012 09:55PM'
p1205
sg22
L338L
ssL8534L
(dp1206
g74
V1966
p1207
sg76
VSanford
p1208
sg78
V32771
p1209
sg80
VAvailable
p1210
sg82
I3
sg83
S'Thursday, 10. May 2012 09:59PM'
p1211
sg85
L8534L
ssL8535L
(dp1212
g74
V1967
p1213
sg76
VSeven Springs
p1214
sg78
V34655
p1215
sg80
VAvailable
p1216
sg82
I3
sg83
S'Thursday, 10. May 2012 09:59PM'
p1217
sg85
L8535L
ssL740L
(dp1218
g3
V0191
p1219
sg5
VStaples
p1220
sg7
V34207
p1221
sg9
VNot sold at this location
p1222
sg11
V\u000A\u000A5627 14th Street West\u000ABradenton \u000AFL\u000A34207\u000A
p1223
sg13
VFL
p1224
sg15
I0
sg16
V27.440500
p1225
sg18
V-82.575200
p1226
sg20
S'Monday, 07. May 2012 09:55PM'
p1227
sg22
L740L
ssL349L
(dp1228
g3
V1220
p1229
sg5
VStaples
p1230
sg7
V34201
p1231
sg9
VIn Stock
p1232
sg11
V\u000A\u000A5429 University Pkwy\u000AUniversity Park \u000AFL\u000A34201\u000A
p1233
sg13
VFL
p1234
sg15
I3
sg16
V27.390720
p1235
sg18
V-82.460470
p1236
sg20
S'Monday, 07. May 2012 09:55PM'
p1237
sg22
L349L
ssL8542L
(dp1238
g74
V1974
p1239
sg76
VJacksonville St Johns
p1240
sg78
V32246
p1241
sg80
VAvailable
p1242
sg82
I3
sg83
S'Thursday, 10. May 2012 09:59PM'
p1243
sg85
L8542L
ssL352L
(dp1244
g3
V1927
p1245
sg5
VStaples
p1246
sg7
V34236
p1247
sg9
VIn Stock
p1248
sg11
V\u000A\u000A1900 Fruitville Road\u000ASarasota \u000AFL\u000A34236\u000A
p1249
sg13
VFL
p1250
sg15
I3
sg16
V27.338840
p1251
sg18
V-82.532280
p1252
sg20
S'Monday, 07. May 2012 09:55PM'
p1253
sg22
L352L
ssL7524L
(dp1254
g74
V638
p1255
sg76
VWest Boca Raton
p1256
sg78
V33428
p1257
sg80
VAvailable
p1258
sg82
I3
sg83
S'Thursday, 10. May 2012 09:59PM'
p1259
sg85
L7524L
ssL7527L
(dp1260
g74
V642
p1261
sg76
VDelray Beach
p1262
sg78
V33444
p1263
sg80
VAvailable
p1264
sg82
I3
sg83
S'Thursday, 10. May 2012 09:59PM'
p1265
sg85
L7527L
ssL1385L
(dp1266
g3
V1055
p1267
sg5
VStaples
p1268
sg7
V32935
p1269
sg9
VIn Stock
p1270
sg11
V\u000ASuite #13\u000A1270-13 North Wickham Road\u000AMelbourne \u000AFL\u000A32935\u000A
p1271
sg13
VFL
p1272
sg15
I3
sg16
V28.126550
p1273
sg18
V-80.674030
p1274
sg20
S'Monday, 07. May 2012 09:55PM'
p1275
sg22
L1385L
ssL7530L
(dp1276
g74
V647
p1277
sg76
VAltamonte Springs
p1278
sg78
V32714
p1279
sg80
VLimited Availability
p1280
sg82
I2
sg83
S'Thursday, 10. May 2012 09:59PM'
p1281
sg85
L7530L
ssL8423L
(dp1282
g74
V1853
p1283
sg76
VOrtega
p1284
sg78
V32244
p1285
sg80
VAvailable
p1286
sg82
I3
sg83
S'Thursday, 10. May 2012 09:59PM'
p1287
sg85
L8423L
ssL7532L
(dp1288
g74
V650
p1289
sg76
VOrlando South
p1290
sg78
V32809
p1291
sg80
VAvailable
p1292
sg82
I3
sg83
S'Thursday, 10. May 2012 09:59PM'
p1293
sg85
L7532L
ssL7533L
(dp1294
g74
V652
p1295
sg76
VBoot Ranch
p1296
sg78
V34685
p1297
sg80
VAvailable
p1298
sg82
I3
sg83
S'Thursday, 10. May 2012 09:59PM'
p1299
sg85
L7533L
ssL7534L
(dp1300
g74
V654
p1301
sg76
VLargo
p1302
sg78
V33771
p1303
sg80
VAvailable
p1304
sg82
I3
sg83
S'Thursday, 10. May 2012 09:59PM'
p1305
sg85
L7534L
ssL7535L
(dp1306
g74
V655
p1307
sg76
VNorth Dale Mabry
p1308
sg78
V33618
p1309
sg80
VAvailable
p1310
sg82
I3
sg83
S'Thursday, 10. May 2012 09:59PM'
p1311
sg85
L7535L
ssL7536L
(dp1312
g74
V656
p1313
sg76
VUniversity Plaza
p1314
sg78
V33613
p1315
sg80
VAvailable
p1316
sg82
I3
sg83
S'Thursday, 10. May 2012 09:59PM'
p1317
sg85
L7536L
ssL8567L
(dp1318
g74
V2022
p1319
sg76
VDavie
p1320
sg78
V33328
p1321
sg80
VAvailable
p1322
sg82
I3
sg83
S'Thursday, 10. May 2012 09:59PM'
p1323
sg85
L8567L
ssL1401L
(dp1324
g3
V1781
p1325
sg5
VStaples
p1326
sg7
V32828
p1327
sg9
VNot sold at this location
p1328
sg11
V\u000A\u000A638 N Alafaya Trail\u000AOrlando \u000AFL\u000A32828\u000A
p1329
sg13
VFL
p1330
sg15
I0
sg16
V28.562960
p1331
sg18
V-81.210050
p1332
sg20
S'Monday, 07. May 2012 09:55PM'
p1333
sg22
L1401L
ssL7548L
(dp1334
g74
V669
p1335
sg76
VSouthside
p1336
sg78
V32256
p1337
sg80
VLimited Availability
p1338
sg82
I2
sg83
S'Thursday, 10. May 2012 09:59PM'
p1339
sg85
L7548L
ssL896L
(dp1340
g3
V1784
p1341
sg5
VStaples
p1342
sg7
V33322
p1343
sg9
VNot sold at this location
p1344
sg11
V\u000A\u000A1937 N Pine Island Rd\u000APlantation \u000AFL\u000A33322\u000A
p1345
sg13
VFL
p1346
sg15
I0
sg16
V26.146070
p1347
sg18
V-80.268120
p1348
sg20
S'Monday, 07. May 2012 09:55PM'
p1349
sg22
L896L
ssL1344L
(dp1350
g3
V0229
p1351
sg5
VStaples
p1352
sg7
V33778
p1353
sg9
VLow Stock
p1354
sg11
V\u000ALargo Mall\u000A13013 Seminole Blvd\u000ALargo \u000AFL\u000A33778\u000A
p1355
sg13
VFL
p1356
sg15
I2
sg16
V27.894490
p1357
sg18
V-82.787150
p1358
sg20
S'Monday, 07. May 2012 09:55PM'
p1359
sg22
L1344L
ssL8579L
(dp1360
g74
V2034
p1361
sg76
VUniversity Parkway
p1362
sg78
V34243
p1363
sg80
VAvailable
p1364
sg82
I3
sg83
S'Thursday, 10. May 2012 09:59PM'
p1365
sg85
L8579L
ssL900L
(dp1366
g3
V0344
p1367
sg5
VStaples
p1368
sg7
V33880
p1369
sg9
VLow Stock
p1370
sg11
V\u000ACiti Centre\u000A700 3rd St SW 470 Citi Centre\u000AWinter Haven \u000AFL\u000A33880\u000A
p1371
sg13
VFL
p1372
sg15
I2
sg16
V28.011970
p1373
sg18
V-81.730100
p1374
sg20
S'Monday, 07. May 2012 09:55PM'
p1375
sg22
L900L
ssL8584L
(dp1376
g74
V2040
p1377
sg76
VTampa Central Walter's Crossing
p1378
sg78
V33607
p1379
sg80
VAvailable
p1380
sg82
I3
sg83
S'Thursday, 10. May 2012 09:59PM'
p1381
sg85
L8584L
ssL8940L
(dp1382
g74
V2427
p1383
sg76
VWest Palm Beach
p1384
sg78
V33401
p1385
sg80
VAvailable
p1386
sg82
I3
sg83
S'Thursday, 10. May 2012 09:59PM'
p1387
sg85
L8940L
ssL395L
(dp1388
g3
V0441
p1389
sg5
VStaples
p1390
sg7
V34982
p1391
sg9
VIn Stock
p1392
sg11
V\u000ASable Palm Plaza\u000A2609 South Federal Highway\u000AFort Pierce \u000AFL\u000A34982\u000A
p1393
sg13
VFL
p1394
sg15
I3
sg16
V27.423900
p1395
sg18
V-80.326600
p1396
sg20
S'Monday, 07. May 2012 09:55PM'
p1397
sg22
L395L
ssL7564L
(dp1398
g74
V687
p1399
sg76
VGainesville
p1400
sg78
V32608
p1401
sg80
VAvailable
p1402
sg82
I3
sg83
S'Thursday, 10. May 2012 09:59PM'
p1403
sg85
L7564L
ssL7565L
(dp1404
g74
V688
p1405
sg76
VDaytona Beach
p1406
sg78
V32114
p1407
sg80
VOut Of Stock
p1408
sg82
I0
sg83
S'Thursday, 10. May 2012 09:59PM'
p1409
sg85
L7565L
ssL7566L
(dp1410
g74
V689
p1411
sg76
VMelbourne
p1412
sg78
V32904
p1413
sg80
VAvailable
p1414
sg82
I3
sg83
S'Thursday, 10. May 2012 09:59PM'
p1415
sg85
L7566L
ssL7567L
(dp1416
g74
V690
p1417
sg76
VPort Charlotte
p1418
sg78
V33948
p1419
sg80
VAvailable
p1420
sg82
I3
sg83
S'Thursday, 10. May 2012 09:59PM'
p1421
sg85
L7567L
ssL7568L
(dp1422
g74
V691
p1423
sg76
VLeesburg
p1424
sg78
V34788
p1425
sg80
VAvailable
p1426
sg82
I3
sg83
S'Thursday, 10. May 2012 09:59PM'
p1427
sg85
L7568L
ssL8081L
(dp1428
g74
V1299
p1429
sg76
VLakeland South
p1430
sg78
V33803
p1431
sg80
VAvailable
p1432
sg82
I3
sg83
S'Thursday, 10. May 2012 09:59PM'
p1433
sg85
L8081L
ssL8082L
(dp1434
g74
V1300
p1435
sg76
VJacksonville Mandarin
p1436
sg78
V32257
p1437
sg80
VAvailable
p1438
sg82
I3
sg83
S'Thursday, 10. May 2012 09:59PM'
p1439
sg85
L8082L
ssL750L
(dp1440
g3
V1208
p1441
sg5
VStaples
p1442
sg7
V33483
p1443
sg9
VNot sold at this location
p1444
sg11
V\u000AThe Plaza at Delray\u000A1626 S. Federal Highway\u000ADelray Beach \u000AFL\u000A33483\u000A
p1445
sg13
VFL
p1446
sg15
I0
sg16
V26.440520
p1447
sg18
V-80.072420
p1448
sg20
S'Monday, 07. May 2012 09:55PM'
p1449
sg22
L750L
ssL7833L
(dp1450
g74
V1039
p1451
sg76
VDadeland
p1452
sg78
V33143
p1453
sg80
VAvailable
p1454
sg82
I3
sg83
S'Thursday, 10. May 2012 09:59PM'
p1455
sg85
L7833L
ssL8600L
(dp1456
g74
V2059
p1457
sg76
VLee County
p1458
sg78
V33913
p1459
sg80
VAvailable
p1460
sg82
I3
sg83
S'Thursday, 10. May 2012 09:59PM'
p1461
sg85
L8600L
ssL8603L
(dp1462
g74
V2062
p1463
sg76
VMt Dora
p1464
sg78
V32757
p1465
sg80
VAvailable
p1466
sg82
I3
sg83
S'Thursday, 10. May 2012 09:59PM'
p1467
sg85
L8603L
ssL8604L
(dp1468
g74
V2063
p1469
sg76
VNaples North
p1470
sg78
V34119
p1471
sg80
VAvailable
p1472
sg82
I3
sg83
S'Thursday, 10. May 2012 09:59PM'
p1473
sg85
L8604L
ssL8605L
(dp1474
g74
V2064
p1475
sg76
VPinellas Park
p1476
sg78
V33781
p1477
sg80
VAvailable
p1478
sg82
I3
sg83
S'Thursday, 10. May 2012 09:59PM'
p1479
sg85
L8605L
ssL8606L
(dp1480
g74
V2065
p1481
sg76
VWellington South
p1482
sg78
V33449
p1483
sg80
VLimited Availability
p1484
sg82
I2
sg83
S'Thursday, 10. May 2012 09:59PM'
p1485
sg85
L8606L
ssL8608L
(dp1486
g74
V2067
p1487
sg76
VBoynton Beach West
p1488
sg78
V33437
p1489
sg80
VAvailable
p1490
sg82
I3
sg83
S'Thursday, 10. May 2012 09:59PM'
p1491
sg85
L8608L
ssL7585L
(dp1492
g74
V740
p1493
sg76
VMary Esther
p1494
sg78
V32569
p1495
sg80
VAvailable
p1496
sg82
I3
sg83
S'Thursday, 10. May 2012 09:59PM'
p1497
sg85
L7585L
ssL930L
(dp1498
g3
V1655
p1499
sg5
VStaples
p1500
sg7
V33063
p1501
sg9
VNot sold at this location
p1502
sg11
V\u000A\u000A5307 West Atlantic Boulevard\u000AMargate \u000AFL\u000A33063\u000A
p1503
sg13
VFL
p1504
sg15
I0
sg16
V26.236030
p1505
sg18
V-80.197660
p1506
sg20
S'Monday, 07. May 2012 09:55PM'
p1507
sg22
L930L
ssL8859L
(dp1508
g715
V2339
p1509
sg717
VWasilla
p1510
sg719
VLimited Availability
p1511
sg721
S'Thursday, 10. May 2012 03:08PM'
p1512
sg723
I2
sg724
L8859L
ssL934L
(dp1513
g3
V0625
p1514
sg5
VStaples
p1515
sg7
V32960
p1516
sg9
VLow Stock
p1517
sg11
V\u000A\u000A1191 US Highway 1\u000AVero Beach \u000AFL\u000A32960\u000A
p1518
sg13
VFL
p1519
sg15
I2
sg16
V27.622450
p1520
sg18
V-80.389760
p1521
sg20
S'Monday, 07. May 2012 09:55PM'
p1522
sg22
L934L
ssL941L
(dp1523
g3
V1173
p1524
sg5
VStaples
p1525
sg7
V33625
p1526
sg9
VIn Stock
p1527
sg11
V\u000A\u000A12845 Citrus Plaza Drive\u000ATampa \u000AFL\u000A33625\u000A
p1528
sg13
VFL
p1529
sg15
I3
sg16
V28.064830
p1530
sg18
V-82.573550
p1531
sg20
S'Monday, 07. May 2012 09:55PM'
p1532
sg22
L941L
ssL645L
(dp1533
g3
V1736
p1534
sg5
VStaples
p1535
sg7
V33162
p1536
sg9
VNot sold at this location
p1537
sg11
V\u000A\u000A735 NE 167th St.\u000ANorth Miami Beach \u000AFL\u000A33162\u000A
p1538
sg13
VFL
p1539
sg15
I0
sg16
V25.929290
p1540
sg18
V-80.185810
p1541
sg20
S'Monday, 07. May 2012 09:55PM'
p1542
sg22
L645L
ssL8626L
(dp1543
g74
V2085
p1544
sg76
VDestin
p1545
sg78
V32541
p1546
sg80
VAvailable
p1547
sg82
I3
sg83
S'Thursday, 10. May 2012 09:59PM'
p1548
sg85
L8626L
ssL8116L
(dp1549
g74
V1337
p1550
sg76
VDeerfield Beach
p1551
sg78
V33441
p1552
sg80
VAvailable
p1553
sg82
I3
sg83
S'Thursday, 10. May 2012 09:59PM'
p1554
sg85
L8116L
ssL949L
(dp1555
g3
V1064
p1556
sg5
VStaples
p1557
sg7
V33813
p1558
sg9
VOut of Stock
p1559
sg11
V\u000A\u000A4313 South Florida Ave.\u000ALakeland \u000AFL\u000A33813\u000A
p1560
sg13
VFL
p1561
sg15
I-1
sg16
V27.987200
p1562
sg18
V-81.957000
p1563
sg20
S'Monday, 07. May 2012 09:55PM'
p1564
sg22
L949L
ssL950L
(dp1565
g3
V1031
p1566
sg5
VStaples
p1567
sg7
V32765
p1568
sg9
VLow Stock
p1569
sg11
V\u000AOviedo Crossroads\u000A1950 W. State Road 426\u000AOviedo \u000AFL\u000A32765\u000A
p1570
sg13
VFL
p1571
sg15
I2
sg16
V28.647350
p1572
sg18
V-81.231440
p1573
sg20
S'Monday, 07. May 2012 09:55PM'
p1574
sg22
L950L
ssL951L
(dp1575
g3
V1744
p1576
sg5
VStaples
p1577
sg7
V33324
p1578
sg9
VNot sold at this location
p1579
sg11
V\u000APine Island Shopping Center\u000A8864 State Road 84\u000ADavie \u000AFL\u000A33324\u000A
p1580
sg13
VFL
p1581
sg15
I0
sg16
V26.102240
p1582
sg18
V-80.267180
p1583
sg20
S'Monday, 07. May 2012 09:55PM'
p1584
sg22
L951L
ssL8633L
(dp1585
g74
V2092
p1586
sg76
VDeerfield Beach W
p1587
sg78
V33442
p1588
sg80
VAvailable
p1589
sg82
I3
sg83
S'Thursday, 10. May 2012 09:59PM'
p1590
sg85
L8633L
ssL449L
(dp1591
g3
V1674
p1592
sg5
VStaples
p1593
sg7
V33319
p1594
sg9
VNot sold at this location
p1595
sg11
V\u000A\u000A7500 W. Commercial Blvd.\u000ALauderhill \u000AFL\u000A33319\u000A
p1596
sg13
VFL
p1597
sg15
I0
sg16
V26.193272
p1598
sg18
V-80.251353
p1599
sg20
S'Monday, 07. May 2012 09:55PM'
p1600
sg22
L449L
ssL964L
(dp1601
g3
V1184
p1602
sg5
VStaples
p1603
sg7
V34994
p1604
sg9
VOut of Stock
p1605
sg11
V\u000A\u000A3150 SE Federal Highway\u000AStuart \u000AFL\u000A34994\u000A
p1606
sg13
VFL
p1607
sg15
I-1
sg16
V27.165800
p1608
sg18
V-80.228900
p1609
sg20
S'Monday, 07. May 2012 09:55PM'
p1610
sg22
L964L
ssL965L
(dp1611
g3
V1882
p1612
sg5
VStaples
p1613
sg7
V32536
p1614
sg9
VIn Stock
p1615
sg11
V\u000A\u000A2821 Ferdon Blvd South\u000ACrestview \u000AFL\u000A32536\u000A
p1616
sg13
VFL
p1617
sg15
I3
sg16
V30.731820
p1618
sg18
V-86.566150
p1619
sg20
S'Monday, 07. May 2012 09:55PM'
p1620
sg22
L965L
ssL8647L
(dp1621
g74
V2109
p1622
sg76
VHialeah
p1623
sg78
V33012
p1624
sg80
VAvailable
p1625
sg82
I3
sg83
S'Thursday, 10. May 2012 09:59PM'
p1626
sg85
L8647L
ssL7624L
(dp1627
g83
S'Thursday, 10. May 2012 09:59PM'
p1628
sg82
Nsg85
L7624L
sg76
VTown & Country
p1629
sg78
V33634
p1630
ssL7625L
(dp1631
g74
V799
p1632
sg76
VNorth Sarasota
p1633
sg78
V34232
p1634
sg80
VAvailable
p1635
sg82
I3
sg83
S'Thursday, 10. May 2012 09:59PM'
p1636
sg85
L7625L
ssL971L
(dp1637
g3
V1199
p1638
sg5
VStaples
p1639
sg7
V33403
p1640
sg9
VIn Stock
p1641
sg11
V\u000ALake Park Shopping Ctr.\u000A1260 Northlake Blvd.\u000ALake Park \u000AFL\u000A33403\u000A
p1642
sg13
VFL
p1643
sg15
I3
sg16
V26.806900
p1644
sg18
V-80.081400
p1645
sg20
S'Monday, 07. May 2012 09:55PM'
p1646
sg22
L971L
ssL7586L
(dp1647
g74
V746
p1648
sg76
VKendall
p1649
sg78
V33196
p1650
sg80
VAvailable
p1651
sg82
I3
sg83
S'Thursday, 10. May 2012 09:59PM'
p1652
sg85
L7586L
ssL8654L
(dp1653
g74
V2118
p1654
sg76
VTampa North
p1655
sg78
V33548
p1656
sg80
VAvailable
p1657
sg82
I3
sg83
S'Thursday, 10. May 2012 09:59PM'
p1658
sg85
L8654L
ssL465L
(dp1659
g3
V1069
p1660
sg5
VStaples
p1661
sg7
V33563
p1662
sg9
VLow Stock
p1663
sg11
V\u000A\u000A1866 Jim Redman Pkwy\u000APlant City \u000AFL\u000A33563\u000A
p1664
sg13
VFL
p1665
sg15
I2
sg16
V27.995040
p1666
sg18
V-82.120590
p1667
sg20
S'Monday, 07. May 2012 09:55PM'
p1668
sg22
L465L
ssL467L
(dp1669
g3
V1034
p1670
sg5
VStaples
p1671
sg7
V32803
p1672
sg9
VLow Stock
p1673
sg11
V\u000A\u000A2774 East Colonial Drive\u000AOrlando \u000AFL\u000A32803\u000A
p1674
sg13
VFL
p1675
sg15
I2
sg16
V28.551910
p1676
sg18
V-81.350120
p1677
sg20
S'Monday, 07. May 2012 09:55PM'
p1678
sg22
L467L
ssL468L
(dp1679
g3
V1716
p1680
sg5
VStaples
p1681
sg7
V34986
p1682
sg9
VLow Stock
p1683
sg11
V\u000A\u000A1729 NW St. Lucie West Blvd\u000APort St. Lucie \u000AFL\u000A34986\u000A
p1684
sg13
VFL
p1685
sg15
I2
sg16
V27.311720
p1686
sg18
V-80.406780
p1687
sg20
S'Monday, 07. May 2012 09:55PM'
p1688
sg22
L468L
ssL7637L
(dp1689
g74
V811
p1690
sg76
VPanama City
p1691
sg78
V32405
p1692
sg80
VAvailable
p1693
sg82
I3
sg83
S'Thursday, 10. May 2012 09:59PM'
p1694
sg85
L7637L
ssL7638L
(dp1695
g74
V812
p1696
sg76
VBrandon
p1697
sg78
V33511
p1698
sg80
VAvailable
p1699
sg82
I3
sg83
S'Thursday, 10. May 2012 09:59PM'
p1700
sg85
L7638L
ssL471L
(dp1701
g3
V1776
p1702
sg5
VStaples
p1703
sg7
V33909
p1704
sg9
VNot sold at this location
p1705
sg11
V\u000A\u000A1800 Pine Island Road NE\u000ACape Coral \u000AFL\u000A33909\u000A
p1706
sg13
VFL
p1707
sg15
I0
sg16
V26.668730
p1708
sg18
V-81.934460
p1709
sg20
S'Monday, 07. May 2012 09:55PM'
p1710
sg22
L471L
ssL7640L
(dp1711
g74
V815
p1712
sg76
VSawgrass
p1713
sg78
V33323
p1714
sg80
VOut Of Stock
p1715
sg82
I0
sg83
S'Thursday, 10. May 2012 09:59PM'
p1716
sg85
L7640L
ssL7641L
(dp1717
g74
V816
p1718
sg76
VStuart
p1719
sg78
V34994
p1720
sg80
VAvailable
p1721
sg82
I3
sg83
S'Thursday, 10. May 2012 09:59PM'
p1722
sg85
L7641L
ssL7642L
(dp1723
g74
V817
p1724
sg76
VBradenton
p1725
sg78
V34207
p1726
sg80
VAvailable
p1727
sg82
I3
sg83
S'Thursday, 10. May 2012 09:59PM'
p1728
sg85
L7642L
ssL7643L
(dp1729
g74
V818
p1730
sg76
VFt Myers
p1731
sg78
V33912
p1732
sg80
VAvailable
p1733
sg82
I3
sg83
S'Thursday, 10. May 2012 09:59PM'
p1734
sg85
L7643L
ssL8160L
(dp1735
g74
V1382
p1736
sg76
VNew Tampa
p1737
sg78
V33543
p1738
sg80
VAvailable
p1739
sg82
I3
sg83
S'Thursday, 10. May 2012 09:59PM'
p1740
sg85
L8160L
ssL993L
(dp1741
g3
V1831
p1742
sg5
VStaples
p1743
sg7
V33137
p1744
sg9
VIn Stock
p1745
sg11
V\u000A\u000A2121 Biscayne Blvd\u000AMiami \u000AFL\u000A33137\u000A
p1746
sg13
VFL
p1747
sg15
I3
sg16
V25.797520
p1748
sg18
V-80.188880
p1749
sg20
S'Monday, 07. May 2012 09:55PM'
p1750
sg22
L993L
ssL484L
(dp1751
g3
V0206
p1752
sg5
VStaples
p1753
sg7
V34231
p1754
sg9
VLow Stock
p1755
sg11
V\u000ABeneva Plaza\u000A8199 Tamiami Trail South\u000ASarasota \u000AFL\u000A34231\u000A
p1756
sg13
VFL
p1757
sg15
I2
sg16
V27.234500
p1758
sg18
V-82.498400
p1759
sg20
S'Monday, 07. May 2012 09:55PM'
p1760
sg22
L484L
ssL7654L
(dp1761
g74
V829
p1762
sg76
VKissimmee
p1763
sg78
V34741
p1764
sg80
VAvailable
p1765
sg82
I3
sg83
S'Thursday, 10. May 2012 09:59PM'
p1766
sg85
L7654L
ssL8682L
(dp1767
g74
V2146
p1768
sg76
VCoral Springs
p1769
sg78
V33073
p1770
sg80
VOut Of Stock
p1771
sg82
I0
sg83
S'Thursday, 10. May 2012 09:59PM'
p1772
sg85
L8682L
ssL8690L
(dp1773
g74
V2155
p1774
sg76
VYulee
p1775
sg78
V32097
p1776
sg80
VLimited Availability
p1777
sg82
I2
sg83
S'Thursday, 10. May 2012 09:59PM'
p1778
sg85
L8690L
ssL7669L
(dp1779
g74
V844
p1780
sg76
VTallahassee
p1781
sg78
V32301
p1782
sg80
VAvailable
p1783
sg82
I3
sg83
S'Thursday, 10. May 2012 09:59PM'
p1784
sg85
L7669L
ssL7670L
(dp1785
g74
V845
p1786
sg76
VLake Mary
p1787
sg78
V32746
p1788
sg80
VAvailable
p1789
sg82
I3
sg83
S'Thursday, 10. May 2012 09:59PM'
p1790
sg85
L7670L
ssL1019L
(dp1791
g3
V0882
p1792
sg5
VStaples
p1793
sg7
V34689
p1794
sg9
VLow Stock
p1795
sg11
V\u000A\u000A41334 North Hwy 19\u000ATarpon Springs \u000AFL\u000A34689\u000A
p1796
sg13
VFL
p1797
sg15
I2
sg16
V28.147510
p1798
sg18
V-82.741400
p1799
sg20
S'Monday, 07. May 2012 09:55PM'
p1800
sg22
L1019L
ss.